(dp1
S'output'
p2
S"<type 'exceptions.AttributeError'> 'DAL' object has no attribute 'valitsekurssi'"
p3
sS'layer'
p4
S'/home/mka/web2py/applications/kurssihallinta/controllers/opettaja.py'
p5
sS'code'
p6
S'# -*- coding: utf-8 -*-\n\n\n@auth.requires_membership(\'opettaja\')\ndef kaikki_kurssit():\n    """\n    Opettajan kaikki kurssit\n    """\n    import sys\n\n    #haetaan tietokannasta kaikki opettajan kurssit\n    query = (db.opettaja.id == db.auth_user.id)&\\\n        (db.kurssi.opettaja_id == db.opettaja.id)\n    opettajan_kurssit = db(query).select()\n    oppilaita_kurssilla = []\n    #tehd\xc3\xa4\xc3\xa4n fake-database k\xc3\xa4ytt\xc3\xa4en haettujen kurssien nimi\xc3\xa4\n    #jotta saadaan ne alasvetovalikkoon\n    db.define_table(\'valitsekurssi\',\n                    Field(\'kurssin_nimi\'),\n                    format = \'%(kurssin_nimi)s\'\n                    )\n    for rivi in opettajan_kurssit:\n        db.valitsekurssi.insert(kurssin_nimi=rivi.kurssi.title)\n        #print rivi.kurssi.title\n        kurssi = rivi.kurssi\n        query = (rivi.kurssi.id == db.oppilaatKursseilla.kurssi_id)\n        oppilaita_kurssilla.append(db(query).count())\n\n    form = SQLFORM.factory(\n        Field(\'kurssin_nimi\', requires=IS_IN_DB(db, \n                                        db.valitsekurssi.id,\n                                        \'%(kurssin_nimi)s\', zero=None)))\n    #pit\xc3\xa4\xc3\xa4 pudottaa pois jottei fake-tietokanta kasva kokoajan\n    db.valitsekurssi.drop()\n\n    response.view = \'opettaja/opettaja_kaikki_kurssit.html\'\n\n    if form.process().accepted:\n        print "HYV\xc3\x84KSYTTY"\n        #name = form.vars.visitor_name\n        #redirect(URL(\'second\',vars=dict(name=name)))\n\n    if request.vars.kurssin_nimi:\n        print "KURSSIN NIMI", request.vars.kurssin_nimi\n        #kurssin_id = form.vars.kurssin_nimi\n        #redirect(URL(\'opettaja\',\'yksi_kurssi\'\n        #         , vars=dict(kurssin_id=kurssin_id)))\n\n    return dict(opettajan_kurssit=opettajan_kurssit,\n                oppilaita_kurssilla=oppilaita_kurssilla,\n                form=form)\n\n#@auth.requires_membership(\'opettaja\')\ndef yksi_kurssi():\n    """\n    Opettajan yksi kurssi\n    """\n    ##print "kurssiID",request.vars.kurssin_id\n    ##or redirect(URL(\'opettaja\',\'yksi_kurssi\'))\n    #print "jurssiID",request.vars.kurssi_id\n    #my_kurssi_id = request.vars.kurssi_id\n    #print "OK",my_kurssi_id\n    ##kurssit = db(db.kurssi.id == db.opettaja.kurssi_id).select()\n    oppilaita_kurssilla = 1\n    #db(db.kurssi.id > 0).count()\n    response.view = \'opettaja/opettaja_yksi_kurssi.html\'\n    #return dict(my_kurssi_id=my_kurssi_id,oppilaita_kurssilla=oppilaita_kurssilla)\n    return dict(oppilaita_kurssilla=oppilaita_kurssilla)\n\nresponse._vars=response._caller(kaikki_kurssit)\n'
p7
sS'snapshot'
p8
(dp9
S'exception'
p10
(dp11
S'__hash__'
p12
S"<method-wrapper '__hash__' of exceptions.AttributeError object>"
p13
sS'__setattr__'
p14
S"<method-wrapper '__setattr__' of exceptions.AttributeError object>"
p15
sS'__reduce_ex__'
p16
S'<built-in method __reduce_ex__ of exceptions.AttributeError object>'
p17
sS'__getslice__'
p18
S"<method-wrapper '__getslice__' of exceptions.AttributeError object>"
p19
sS'__getitem__'
p20
S"<method-wrapper '__getitem__' of exceptions.AttributeError object>"
p21
sS'__setstate__'
p22
S'<built-in method __setstate__ of exceptions.AttributeError object>'
p23
sS'__reduce__'
p24
S'<built-in method __reduce__ of exceptions.AttributeError object>'
p25
sS'__str__'
p26
S"<method-wrapper '__str__' of exceptions.AttributeError object>"
p27
sS'__format__'
p28
S'<built-in method __format__ of exceptions.AttributeError object>'
p29
sS'__getattribute__'
p30
S"<method-wrapper '__getattribute__' of exceptions.AttributeError object>"
p31
sS'__class__'
p32
S"<type 'exceptions.AttributeError'>"
p33
sS'__unicode__'
p34
S'<built-in method __unicode__ of exceptions.AttributeError object>'
p35
sS'__delattr__'
p36
S"<method-wrapper '__delattr__' of exceptions.AttributeError object>"
p37
sS'__subclasshook__'
p38
S'<built-in method __subclasshook__ of type object>'
p39
sS'__repr__'
p40
S"<method-wrapper '__repr__' of exceptions.AttributeError object>"
p41
sS'args'
p42
S'("\'DAL\' object has no attribute \'valitsekurssi\'",)'
p43
sS'__dict__'
p44
S'{}'
p45
sS'__sizeof__'
p46
S'<built-in method __sizeof__ of exceptions.AttributeError object>'
p47
sS'__doc__'
p48
S"'Attribute not found.'"
p49
sS'__init__'
p50
S"<method-wrapper '__init__' of exceptions.AttributeError object>"
p51
sS'__new__'
p52
S'<built-in method __new__ of type object>'
p53
ssS'evalue'
p54
S"'DAL' object has no attribute 'valitsekurssi'"
p55
sS'request'
p56
cgluon.html
XML_unpickle
p57
(S's"d\x00\x00<div><table><tr><td style="font-weight:bold;vertical-align:top;">ajax</td><td style="vertical-align:top;">:</td><td><div>False</div></td></tr><tr><td style="font-weight:bold;vertical-align:top;">application</td><td style="vertical-align:top;">:</td><td><div>kurssihallinta</div></td></tr><tr><td style="font-weight:bold;vertical-align:top;">args</td><td style="vertical-align:top;">:</td><td><div><table></table></div></td></tr><tr><td style="font-weight:bold;vertical-align:top;">cid</td><td style="vertical-align:top;">:</td><td><div>None</div></td></tr><tr><td style="font-weight:bold;vertical-align:top;">client</td><td style="vertical-align:top;">:</td><td><div>127.0.0.1</div></td></tr><tr><td style="font-weight:bold;vertical-align:top;">controller</td><td style="vertical-align:top;">:</td><td><div>opettaja</div></td></tr><tr><td style="font-weight:bold;vertical-align:top;">cookies</td><td style="vertical-align:top;">:</td><td><div><table><tr><td style="font-weight:bold;vertical-align:top;">session_id_admin</td><td style="vertical-align:top;">:</td><td><div>127.0.0.1-79a3ce35-a0ac-44f8-9022-b065f4b5c3a0<table><tr><td style="font-weight:bold;vertical-align:top;">comment</td><td style="vertical-align:top;">:</td><td><div></div></td></tr><tr><td style="font-weight:bold;vertical-align:top;">domain</td><td style="vertical-align:top;">:</td><td><div></div></td></tr><tr><td style="font-weight:bold;vertical-align:top;">expires</td><td style="vertical-align:top;">:</td><td><div></div></td></tr><tr><td style="font-weight:bold;vertical-align:top;">httponly</td><td style="vertical-align:top;">:</td><td><div></div></td></tr><tr><td style="font-weight:bold;vertical-align:top;">max-age</td><td style="vertical-align:top;">:</td><td><div></div></td></tr><tr><td style="font-weight:bold;vertical-align:top;">path</td><td style="vertical-align:top;">:</td><td><div></div></td></tr><tr><td style="font-weight:bold;vertical-align:top;">secure</td><td style="vertical-align:top;">:</td><td><div></div></td></tr><tr><td style="font-weight:bold;vertical-align:top;">version</td><td style="vertical-align:top;">:</td><td><div></div></td></tr></table></div></td></tr><tr><td style="font-weight:bold;vertical-align:top;">session_id_kurssihallinta</td><td style="vertical-align:top;">:</td><td><div>127.0.0.1-2c228f16-b73c-4322-98a9-ec3e70ee426f<table><tr><td style="font-weight:bold;vertical-align:top;">comment</td><td style="vertical-align:top;">:</td><td><div></div></td></tr><tr><td style="font-weight:bold;vertical-align:top;">domain</td><td style="vertical-align:top;">:</td><td><div></div></td></tr><tr><td style="font-weight:bold;vertical-align:top;">expires</td><td style="vertical-align:top;">:</td><td><div></div></td></tr><tr><td style="font-weight:bold;vertical-align:top;">httponly</td><td style="vertical-align:top;">:</td><td><div></div></td></tr><tr><td style="font-weight:bold;vertical-align:top;">max-age</td><td style="vertical-align:top;">:</td><td><div></div></td></tr><tr><td style="font-weight:bold;vertical-align:top;">path</td><td style="vertical-align:top;">:</td><td><div></div></td></tr><tr><td style="font-weight:bold;vertical-align:top;">secure</td><td style="vertical-align:top;">:</td><td><div></div></td></tr><tr><td style="font-weight:bold;vertical-align:top;">version</td><td style="vertical-align:top;">:</td><td><div></div></td></tr></table></div></td></tr><tr><td style="font-weight:bold;vertical-align:top;">session_id_welcome</td><td style="vertical-align:top;">:</td><td><div>127.0.0.1-860be321-c661-4445-8cae-db2cfa66dac8<table><tr><td style="font-weight:bold;vertical-align:top;">comment</td><td style="vertical-align:top;">:</td><td><div></div></td></tr><tr><td style="font-weight:bold;vertical-align:top;">domain</td><td style="vertical-align:top;">:</td><td><div></div></td></tr><tr><td style="font-weight:bold;vertical-align:top;">expires</td><td style="vertical-align:top;">:</td><td><div></div></td></tr><tr><td style="font-weight:bold;vertical-align:top;">httponly</td><td style="vertical-align:top;">:</td><td><div></div></td></tr><tr><td style="font-weight:bold;vertical-align:top;">max-age</td><td style="vertical-align:top;">:</td><td><div></div></td></tr><tr><td style="font-weight:bold;vertical-align:top;">path</td><td style="vertical-align:top;">:</td><td><div></div></td></tr><tr><td style="font-weight:bold;vertical-align:top;">secure</td><td style="vertical-align:top;">:</td><td><div></div></td></tr><tr><td style="font-weight:bold;vertical-align:top;">version</td><td style="vertical-align:top;">:</td><td><div></div></td></tr></table></div></td></tr></table></div></td></tr><tr><td style="font-weight:bold;vertical-align:top;">env</td><td style="vertical-align:top;">:</td><td><div><table><tr><td style="font-weight:bold;vertical-align:top;">CONTENT_LENGTH</td><td style="vertical-align:top;">:</td><td><div>386</div></td></tr><tr><td style="font-weight:bold;vertical-align:top;">CONTENT_TYPE</td><td style="vertical-align:top;">:</td><td><div>multipart/form-data; boundary=----WebKitFormBoundaryJr0DMd3wSpZCVEYv</div></td></tr><tr><td style="font-weight:bold;vertical-align:top;">HTTP_ACCEPT</td><td style="vertical-align:top;">:</td><td><div>text/html,application/xhtml+xml,application/xml;q=0.9,*/*;q=0.8</div></td></tr><tr><td style="font-weight:bold;vertical-align:top;">HTTP_ACCEPT_CHARSET</td><td style="vertical-align:top;">:</td><td><div>ISO-8859-1,utf-8;q=0.7,*;q=0.3</div></td></tr><tr><td style="font-weight:bold;vertical-align:top;">HTTP_ACCEPT_ENCODING</td><td style="vertical-align:top;">:</td><td><div>gzip,deflate,sdch</div></td></tr><tr><td style="font-weight:bold;vertical-align:top;">HTTP_ACCEPT_LANGUAGE</td><td style="vertical-align:top;">:</td><td><div>en-US,en;q=0.8</div></td></tr><tr><td style="font-weight:bold;vertical-align:top;">HTTP_CACHE_CONTROL</td><td style="vertical-align:top;">:</td><td><div>max-age=0</div></td></tr><tr><td style="font-weight:bold;vertical-align:top;">HTTP_CONNECTION</td><td style="vertical-align:top;">:</td><td><div>keep-alive</div></td></tr><tr><td style="font-weight:bold;vertical-align:top;">HTTP_CONTENT_LENGTH</td><td style="vertical-align:top;">:</td><td><div>386</div></td></tr><tr><td style="font-weight:bold;vertical-align:top;">HTTP_CONTENT_TYPE</td><td style="vertical-align:top;">:</td><td><div>multipart/form-data; boundary=----WebKitFormBoundaryJr0DMd3wSpZCVEYv</div></td></tr><tr><td style="font-weight:bold;vertical-align:top;">HTTP_COOKIE</td><td style="vertical-align:top;">:</td><td><div>session_id_welcome=127.0.0.1-860be321-c661-4445-8cae-db2cfa66dac8; session_id_admin=127.0.0.1-79a3ce35-a0ac-44f8-9022-b065f4b5c3a0; session_id_kurssihallinta=127.0.0.1-2c228f16-b73c-4322-98a9-ec3e70ee426f</div></td></tr><tr><td style="font-weight:bold;vertical-align:top;">HTTP_HOST</td><td style="vertical-align:top;">:</td><td><div>127.0.0.1:8000</div></td></tr><tr><td style="font-weight:bold;vertical-align:top;">HTTP_ORIGIN</td><td style="vertical-align:top;">:</td><td><div>http://127.0.0.1:8000</div></td></tr><tr><td style="font-weight:bold;vertical-align:top;">HTTP_REFERER</td><td style="vertical-align:top;">:</td><td><div>http://127.0.0.1:8000/kurssihallinta/opettaja/kaikki_kurssit</div></td></tr><tr><td style="font-weight:bold;vertical-align:top;">HTTP_USER_AGENT</td><td style="vertical-align:top;">:</td><td><div>Mozilla/5.0 (X11; Linux i686) AppleWebKit/537.31 (KHTML, like Gecko) Chrome/26.0.1410.63 Safari/537.31</div></td></tr><tr><td style="font-weight:bold;vertical-align:top;">PATH_INFO</td><td style="vertical-align:top;">:</td><td><div>/kurssihallinta/opettaja/kaikki_kurssit</div></td></tr><tr><td style="font-weight:bold;vertical-align:top;">QUERY_STRING</td><td style="vertical-align:top;">:</td><td><div></div></td></tr><tr><td style="font-weight:bold;vertical-align:top;">REMOTE_ADDR</td><td style="vertical-align:top;">:</td><td><div>127.0.0.1</div></td></tr><tr><td style="font-weight:bold;vertical-align:top;">REMOTE_PORT</td><td style="vertical-align:top;">:</td><td><div>40864</div></td></tr><tr><td style="font-weight:bold;vertical-align:top;">REQUEST_METHOD</td><td style="vertical-align:top;">:</td><td><div>POST</div></td></tr><tr><td style="font-weight:bold;vertical-align:top;">SCRIPT_NAME</td><td style="vertical-align:top;">:</td><td><div></div></td></tr><tr><td style="font-weight:bold;vertical-align:top;">SERVER_NAME</td><td style="vertical-align:top;">:</td><td><div>mka3830TG</div></td></tr><tr><td style="font-weight:bold;vertical-align:top;">SERVER_PORT</td><td style="vertical-align:top;">:</td><td><div>8000</div></td></tr><tr><td style="font-weight:bold;vertical-align:top;">SERVER_PROTOCOL</td><td style="vertical-align:top;">:</td><td><div>HTTP/1.1</div></td></tr><tr><td style="font-weight:bold;vertical-align:top;">SERVER_SOFTWARE</td><td style="vertical-align:top;">:</td><td><div>Rocket 1.2.6</div></td></tr><tr><td style="font-weight:bold;vertical-align:top;">app_folders</td><td style="vertical-align:top;">:</td><td><div>set([&#x27;/home/mka/web2py/applications/examples/&#x27;, &#x27;/home/mka/web2py/applications/manage/&#x27;, &#x27;/home/mka/web2py/applications/welcome/&#x27;, &#x27;/home/mka/web2py/applications/admin/&#x27;, &#x27;/home/mka/web2py/applications/kurssihallinta/&#x27;])</div></td></tr><tr><td style="font-weight:bold;vertical-align:top;">applications_parent</td><td style="vertical-align:top;">:</td><td><div>/home/mka/web2py</div></td></tr><tr><td style="font-weight:bold;vertical-align:top;">cmd_args</td><td style="vertical-align:top;">:</td><td><div><table></table></div></td></tr><tr><td style="font-weight:bold;vertical-align:top;">cmd_options</td><td style="vertical-align:top;">:</td><td><div>&lt;Values at 0xa1c99cc: {&#x27;verbose&#x27;: False, &#x27;ip&#x27;: &#x27;127.0.0.1&#x27;, &#x27;debuglevel&#x27;: 30, &#x27;with_scheduler&#x27;: False, &#x27;ips&#x27;: [&#x27;::1&#x27;], &#x27;shutdown_timeout&#x27;: 5, &#x27;taskbar&#x27;: False, &#x27;with_coverage&#x27;: False, &#x27;port&#x27;: 8000, &#x27;maxthreads&#x27;: None, &#x27;softcron&#x27;: False, &#x27;server_name&#x27;: &#x27;mka3830TG&#x27;, &#x27;bpython&#x27;: False, &#x27;nogui&#x27;: False, &#x27;pid_filename&#x27;: &#x27;httpserver.pid&#x27;, &#x27;extcron&#x27;: False, &#x27;runcron&#x27;: False, &#x27;run_system_tests&#x27;: False, &#x27;test&#x27;: None, &#x27;folder&#x27;: &#x27;/home/mka/web2py&#x27;, &#x27;config&#x27;: &#x27;&#x27;, &#x27;minthreads&#x27;: None, &#x27;shell&#x27;: None, &#x27;run&#x27;: &#x27;&#x27;, &#x27;log_filename&#x27;: &#x27;httpserver.log&#x27;, &#x27;profiler_dir&#x27;: None, &#x27;args&#x27;: [&#x27;&#x27;], &#x27;socket_timeout&#x27;: 5, &#x27;ssl_ca_certificate&#x27;: None, &#x27;scheduler&#x27;: None, &#x27;interfaces&#x27;: None, &#x27;ssl_private_key&#x27;: &#x27;&#x27;, &#x27;scheduler_groups&#x27;: None, &#x27;password&#x27;: &#x27;&lt;ask&gt;&#x27;, &#x27;request_queue_size&#x27;: 5, &#x27;ssl_certificate&#x27;: &#x27;&#x27;, &#x27;cronjob&#x27;: False, &#x27;numthreads&#x27;: None, &#x27;quiet&#x27;: False, &#x27;import_models&#x27;: False, &#x27;timeout&#x27;: 10, &#x27;plain&#x27;: False, &#x27;nobanner&#x27;: False}&gt;</div></td></tr><tr><td style="font-weight:bold;vertical-align:top;">content_length</td><td style="vertical-align:top;">:</td><td><div>386</div></td></tr><tr><td style="font-weight:bold;vertical-align:top;">content_type</td><td style="vertical-align:top;">:</td><td><div>multipart/form-data; boundary=----WebKitFormBoundaryJr0DMd3wSpZCVEYv</div></td></tr><tr><td style="font-weight:bold;vertical-align:top;">db_sessions</td><td style="vertical-align:top;">:</td><td><div>set([])</div></td></tr><tr><td style="font-weight:bold;vertical-align:top;">debugging</td><td style="vertical-align:top;">:</td><td><div>True</div></td></tr><tr><td style="font-weight:bold;vertical-align:top;">gluon_parent</td><td style="vertical-align:top;">:</td><td><div>/home/mka/web2py</div></td></tr><tr><td style="font-weight:bold;vertical-align:top;">http_accept</td><td style="vertical-align:top;">:</td><td><div>text/html,application/xhtml+xml,application/xml;q=0.9,*/*;q=0.8</div></td></tr><tr><td style="font-weight:bold;vertical-align:top;">http_accept_charset</td><td style="vertical-align:top;">:</td><td><div>ISO-8859-1,utf-8;q=0.7,*;q=0.3</div></td></tr><tr><td style="font-weight:bold;vertical-align:top;">http_accept_encoding</td><td style="vertical-align:top;">:</td><td><div>gzip,deflate,sdch</div></td></tr><tr><td style="font-weight:bold;vertical-align:top;">http_accept_language</td><td style="vertical-align:top;">:</td><td><div>en-US,en;q=0.8</div></td></tr><tr><td style="font-weight:bold;vertical-align:top;">http_cache_control</td><td style="vertical-align:top;">:</td><td><div>max-age=0</div></td></tr><tr><td style="font-weight:bold;vertical-align:top;">http_connection</td><td style="vertical-align:top;">:</td><td><div>keep-alive</div></td></tr><tr><td style="font-weight:bold;vertical-align:top;">http_content_length</td><td style="vertical-align:top;">:</td><td><div>386</div></td></tr><tr><td style="font-weight:bold;vertical-align:top;">http_content_type</td><td style="vertical-align:top;">:</td><td><div>multipart/form-data; boundary=----WebKitFormBoundaryJr0DMd3wSpZCVEYv</div></td></tr><tr><td style="font-weight:bold;vertical-align:top;">http_cookie</td><td style="vertical-align:top;">:</td><td><div>session_id_welcome=127.0.0.1-860be321-c661-4445-8cae-db2cfa66dac8; session_id_admin=127.0.0.1-79a3ce35-a0ac-44f8-9022-b065f4b5c3a0; session_id_kurssihallinta=127.0.0.1-2c228f16-b73c-4322-98a9-ec3e70ee426f</div></td></tr><tr><td style="font-weight:bold;vertical-align:top;">http_host</td><td style="vertical-align:top;">:</td><td><div>127.0.0.1:8000</div></td></tr><tr><td style="font-weight:bold;vertical-align:top;">http_origin</td><td style="vertical-align:top;">:</td><td><div>http://127.0.0.1:8000</div></td></tr><tr><td style="font-weight:bold;vertical-align:top;">http_referer</td><td style="vertical-align:top;">:</td><td><div>http://127.0.0.1:8000/kurssihallinta/opettaja/kaikki_kurssit</div></td></tr><tr><td style="font-weight:bold;vertical-align:top;">http_user_agent</td><td style="vertical-align:top;">:</td><td><div>Mozilla/5.0 (X11; Linux i686) AppleWebKit/537.31 (KHTML, like Gecko) Chrome/26.0.1410.63 Safari/537.31</div></td></tr><tr><td style="font-weight:bold;vertical-align:top;">is_jython</td><td style="vertical-align:top;">:</td><td><div>False</div></td></tr><tr><td style="font-weight:bold;vertical-align:top;">is_pypy</td><td style="vertical-align:top;">:</td><td><div>False</div></td></tr><tr><td style="font-weight:bold;vertical-align:top;">is_source</td><td style="vertical-align:top;">:</td><td><div>True</div></td></tr><tr><td style="font-weight:bold;vertical-align:top;">local_hosts</td><td style="vertical-align:top;">:</td><td><div><table><tr><td><div>::ffff:127.0.0.1</div></td></tr><tr><td><div>::1</div></td></tr><tr><td><div>mka3830TG</div></td></tr><tr><td><div>localhost6.localdomain6</div></td></tr><tr><td><div>127.0.1.1</div></td></tr><tr><td><div>127.0.0.1</div></td></tr></table></div></td></tr><tr><td style="font-weight:bold;vertical-align:top;">path_info</td><td style="vertical-align:top;">:</td><td><div>/kurssihallinta/opettaja/kaikki_kurssit</div></td></tr><tr><td style="font-weight:bold;vertical-align:top;">query_string</td><td style="vertical-align:top;">:</td><td><div></div></td></tr><tr><td style="font-weight:bold;vertical-align:top;">remote_addr</td><td style="vertical-align:top;">:</td><td><div>127.0.0.1</div></td></tr><tr><td style="font-weight:bold;vertical-align:top;">remote_port</td><td style="vertical-align:top;">:</td><td><div>40864</div></td></tr><tr><td style="font-weight:bold;vertical-align:top;">request_method</td><td style="vertical-align:top;">:</td><td><div>POST</div></td></tr><tr><td style="font-weight:bold;vertical-align:top;">request_uri</td><td style="vertical-align:top;">:</td><td><div>/kurssihallinta/opettaja/kaikki_kurssit</div></td></tr><tr><td style="font-weight:bold;vertical-align:top;">script_name</td><td style="vertical-align:top;">:</td><td><div></div></td></tr><tr><td style="font-weight:bold;vertical-align:top;">server_name</td><td style="vertical-align:top;">:</td><td><div>mka3830TG</div></td></tr><tr><td style="font-weight:bold;vertical-align:top;">server_port</td><td style="vertical-align:top;">:</td><td><div>8000</div></td></tr><tr><td style="font-weight:bold;vertical-align:top;">server_protocol</td><td style="vertical-align:top;">:</td><td><div>HTTP/1.1</div></td></tr><tr><td style="font-weight:bold;vertical-align:top;">server_software</td><td style="vertical-align:top;">:</td><td><div>Rocket 1.2.6</div></td></tr><tr><td style="font-weight:bold;vertical-align:top;">web2py_path</td><td style="vertical-align:top;">:</td><td><div>/home/mka/web2py</div></td></tr><tr><td style="font-weight:bold;vertical-align:top;">web2py_version</td><td style="vertical-align:top;">:</td><td><div>2.9.5-stable+timestamp.2014.03.16.02.35.39</div></td></tr><tr><td style="font-weight:bold;vertical-align:top;">wsgi.errors</td><td style="vertical-align:top;">:</td><td><div>&lt;open file &#x27;&lt;stderr&gt;&#x27;, mode &#x27;w&#x27; at 0xb72a00d0&gt;</div></td></tr><tr><td style="font-weight:bold;vertical-align:top;">wsgi.file_wrapper</td><td style="vertical-align:top;">:</td><td><div>&lt;class wsgiref.util.FileWrapper at 0xa19611c&gt;</div></td></tr><tr><td style="font-weight:bold;vertical-align:top;">wsgi.input</td><td style="vertical-align:top;">:</td><td><div>&lt;socket._fileobject object at 0xa68b266c&gt;</div></td></tr><tr><td style="font-weight:bold;vertical-align:top;">wsgi.multiprocess</td><td style="vertical-align:top;">:</td><td><div>False</div></td></tr><tr><td style="font-weight:bold;vertical-align:top;">wsgi.multithread</td><td style="vertical-align:top;">:</td><td><div>True</div></td></tr><tr><td style="font-weight:bold;vertical-align:top;">wsgi.run_once</td><td style="vertical-align:top;">:</td><td><div>False</div></td></tr><tr><td style="font-weight:bold;vertical-align:top;">wsgi.url_scheme</td><td style="vertical-align:top;">:</td><td><div>http</div></td></tr><tr><td style="font-weight:bold;vertical-align:top;">wsgi.version</td><td style="vertical-align:top;">:</td><td><div><table><tr><td><div>1</div></td></tr><tr><td><div>0</div></td></tr></table></div></td></tr><tr><td style="font-weight:bold;vertical-align:top;">wsgi_errors</td><td style="vertical-align:top;">:</td><td><div>&lt;open file &#x27;&lt;stderr&gt;&#x27;, mode &#x27;w&#x27; at 0xb72a00d0&gt;</div></td></tr><tr><td style="font-weight:bold;vertical-align:top;">wsgi_file_wrapper</td><td style="vertical-align:top;">:</td><td><div>&lt;class wsgiref.util.FileWrapper at 0xa19611c&gt;</div></td></tr><tr><td style="font-weight:bold;vertical-align:top;">wsgi_input</td><td style="vertical-align:top;">:</td><td><div>&lt;socket._fileobject object at 0xa68b266c&gt;</div></td></tr><tr><td style="font-weight:bold;vertical-align:top;">wsgi_multiprocess</td><td style="vertical-align:top;">:</td><td><div>False</div></td></tr><tr><td style="font-weight:bold;vertical-align:top;">wsgi_multithread</td><td style="vertical-align:top;">:</td><td><div>True</div></td></tr><tr><td style="font-weight:bold;vertical-align:top;">wsgi_run_once</td><td style="vertical-align:top;">:</td><td><div>False</div></td></tr><tr><td style="font-weight:bold;vertical-align:top;">wsgi_url_scheme</td><td style="vertical-align:top;">:</td><td><div>http</div></td></tr><tr><td style="font-weight:bold;vertical-align:top;">wsgi_version</td><td style="vertical-align:top;">:</td><td><div><table><tr><td><div>1</div></td></tr><tr><td><div>0</div></td></tr></table></div></td></tr></table></div></td></tr><tr><td style="font-weight:bold;vertical-align:top;">extension</td><td style="vertical-align:top;">:</td><td><div>html</div></td></tr><tr><td style="font-weight:bold;vertical-align:top;">folder</td><td style="vertical-align:top;">:</td><td><div>/home/mka/web2py/applications/kurssihallinta/</div></td></tr><tr><td style="font-weight:bold;vertical-align:top;">function</td><td style="vertical-align:top;">:</td><td><div>kaikki_kurssit</div></td></tr><tr><td style="font-weight:bold;vertical-align:top;">global_settings</td><td style="vertical-align:top;">:</td><td><div><table><tr><td style="font-weight:bold;vertical-align:top;">app_folders</td><td style="vertical-align:top;">:</td><td><div>set([&#x27;/home/mka/web2py/applications/examples/&#x27;, &#x27;/home/mka/web2py/applications/manage/&#x27;, &#x27;/home/mka/web2py/applications/welcome/&#x27;, &#x27;/home/mka/web2py/applications/admin/&#x27;, &#x27;/home/mka/web2py/applications/kurssihallinta/&#x27;])</div></td></tr><tr><td style="font-weight:bold;vertical-align:top;">applications_parent</td><td style="vertical-align:top;">:</td><td><div>/home/mka/web2py</div></td></tr><tr><td style="font-weight:bold;vertical-align:top;">cmd_args</td><td style="vertical-align:top;">:</td><td><div><table></table></div></td></tr><tr><td style="font-weight:bold;vertical-align:top;">cmd_options</td><td style="vertical-align:top;">:</td><td><div>&lt;Values at 0xa1c99cc: {&#x27;verbose&#x27;: False, &#x27;ip&#x27;: &#x27;127.0.0.1&#x27;, &#x27;debuglevel&#x27;: 30, &#x27;with_scheduler&#x27;: False, &#x27;ips&#x27;: [&#x27;::1&#x27;], &#x27;shutdown_timeout&#x27;: 5, &#x27;taskbar&#x27;: False, &#x27;with_coverage&#x27;: False, &#x27;port&#x27;: 8000, &#x27;maxthreads&#x27;: None, &#x27;softcron&#x27;: False, &#x27;server_name&#x27;: &#x27;mka3830TG&#x27;, &#x27;bpython&#x27;: False, &#x27;nogui&#x27;: False, &#x27;pid_filename&#x27;: &#x27;httpserver.pid&#x27;, &#x27;extcron&#x27;: False, &#x27;runcron&#x27;: False, &#x27;run_system_tests&#x27;: False, &#x27;test&#x27;: None, &#x27;folder&#x27;: &#x27;/home/mka/web2py&#x27;, &#x27;config&#x27;: &#x27;&#x27;, &#x27;minthreads&#x27;: None, &#x27;shell&#x27;: None, &#x27;run&#x27;: &#x27;&#x27;, &#x27;log_filename&#x27;: &#x27;httpserver.log&#x27;, &#x27;profiler_dir&#x27;: None, &#x27;args&#x27;: [&#x27;&#x27;], &#x27;socket_timeout&#x27;: 5, &#x27;ssl_ca_certificate&#x27;: None, &#x27;scheduler&#x27;: None, &#x27;interfaces&#x27;: None, &#x27;ssl_private_key&#x27;: &#x27;&#x27;, &#x27;scheduler_groups&#x27;: None, &#x27;password&#x27;: &#x27;&lt;ask&gt;&#x27;, &#x27;request_queue_size&#x27;: 5, &#x27;ssl_certificate&#x27;: &#x27;&#x27;, &#x27;cronjob&#x27;: False, &#x27;numthreads&#x27;: None, &#x27;quiet&#x27;: False, &#x27;import_models&#x27;: False, &#x27;timeout&#x27;: 10, &#x27;plain&#x27;: False, &#x27;nobanner&#x27;: False}&gt;</div></td></tr><tr><td style="font-weight:bold;vertical-align:top;">db_sessions</td><td style="vertical-align:top;">:</td><td><div>set([])</div></td></tr><tr><td style="font-weight:bold;vertical-align:top;">debugging</td><td style="vertical-align:top;">:</td><td><div>True</div></td></tr><tr><td style="font-weight:bold;vertical-align:top;">gluon_parent</td><td style="vertical-align:top;">:</td><td><div>/home/mka/web2py</div></td></tr><tr><td style="font-weight:bold;vertical-align:top;">is_jython</td><td style="vertical-align:top;">:</td><td><div>False</div></td></tr><tr><td style="font-weight:bold;vertical-align:top;">is_pypy</td><td style="vertical-align:top;">:</td><td><div>False</div></td></tr><tr><td style="font-weight:bold;vertical-align:top;">is_source</td><td style="vertical-align:top;">:</td><td><div>True</div></td></tr><tr><td style="font-weight:bold;vertical-align:top;">local_hosts</td><td style="vertical-align:top;">:</td><td><div><table><tr><td><div>::ffff:127.0.0.1</div></td></tr><tr><td><div>::1</div></td></tr><tr><td><div>mka3830TG</div></td></tr><tr><td><div>localhost6.localdomain6</div></td></tr><tr><td><div>127.0.1.1</div></td></tr><tr><td><div>127.0.0.1</div></td></tr></table></div></td></tr><tr><td style="font-weight:bold;vertical-align:top;">web2py_version</td><td style="vertical-align:top;">:</td><td><div>2.9.5-stable+timestamp.2014.03.16.02.35.39</div></td></tr></table></div></td></tr><tr><td style="font-weight:bold;vertical-align:top;">is_https</td><td style="vertical-align:top;">:</td><td><div>False</div></td></tr><tr><td style="font-weight:bold;vertical-align:top;">is_local</td><td style="vertical-align:top;">:</td><td><div>True</div></td></tr><tr><td style="font-weight:bold;vertical-align:top;">is_restful</td><td style="vertical-align:top;">:</td><td><div>False</div></td></tr><tr><td style="font-weight:bold;vertical-align:top;">now</td><td style="vertical-align:top;">:</td><td><div>datetime.datetime(2014, 6, 8, 13, 57, 3, 62685)</div></td></tr><tr><td style="font-weight:bold;vertical-align:top;">raw_args</td><td style="vertical-align:top;">:</td><td><div></div></td></tr><tr><td style="font-weight:bold;vertical-align:top;">raw_extension</td><td style="vertical-align:top;">:</td><td><div>None</div></td></tr><tr><td style="font-weight:bold;vertical-align:top;">url</td><td style="vertical-align:top;">:</td><td><div>/kurssihallinta/opettaja/kaikki_kurssit</div></td></tr><tr><td style="font-weight:bold;vertical-align:top;">utcnow</td><td style="vertical-align:top;">:</td><td><div>datetime.datetime(2014, 6, 8, 10, 57, 3, 62750)</div></td></tr><tr><td style="font-weight:bold;vertical-align:top;">uuid</td><td style="vertical-align:top;">:</td><td><div>kurssihallinta/127.0.0.1.2014-06-08.13-57-03.6d76f8f2-37e5-40ba-83c0-952cd851d814</div></td></tr><tr><td style="font-weight:bold;vertical-align:top;">wsgi</td><td style="vertical-align:top;">:</td><td><div>&lt;gluon.main.LazyWSGI object at 0xa6e642cc&gt;</div></td></tr></table></div>'
tRp58
sS'frames'
p59
(lp60
(dp61
S'file'
p62
S'/home/mka/web2py/gluon/restricted.py'
p63
sS'dump'
p64
(dp65
S'environment'
p66
S"{'A': <class 'gluon.html.A'>, 'ANY_OF': <class 'gluon.validators.ANY_OF'>, 'Auth': <class 'gluon.tools.Auth'>, 'B': <class 'gluon.html.B'>, 'BEAUTIFY': <class 'gluon.html.BEAUTIFY'>, 'BODY': <class 'gluon.html.BODY'>, 'BR': <class 'gluon.html.BR'>, 'BUTTON': <class 'gluon.html.BUTTON'>, 'CAT': <class 'gluon.html.CAT'>, 'CENTER': <class 'gluon.html.CENTER'>, ...}"
p67
sS'ccode'
p68
S'<code object <module> at 0xa7f1db60, file "/home.../kurssihallinta/controllers/opettaja.py", line 4>'
p69
ssS'lnum'
p70
I220
sS'lines'
p71
(dp72
I224
S'        # do not encapsulate (obfuscate) the original RestrictedError'
p73
sI215
S'    try:'
p74
sI216
S'        if isinstance(code, types.CodeType):'
p75
sI217
S'            ccode = code'
p76
sI218
S'        else:'
p77
sI219
S'            ccode = compile2(code, layer)'
p78
sI220
S'        exec ccode in environment'
p79
sI221
S'    except HTTP:'
p80
sI222
S'        raise'
p81
sI223
S'    except RestrictedError:'
p82
ssS'call'
p83
S"(code='# -*- coding: utf-8 -*-\\n\\n\\n@auth.requires_members...\\nresponse._vars=response._caller(kaikki_kurssit)\\n', environment={'A': <class 'gluon.html.A'>, 'ANY_OF': <class 'gluon.validators.ANY_OF'>, 'Auth': <class 'gluon.tools.Auth'>, 'B': <class 'gluon.html.B'>, 'BEAUTIFY': <class 'gluon.html.BEAUTIFY'>, 'BODY': <class 'gluon.html.BODY'>, 'BR': <class 'gluon.html.BR'>, 'BUTTON': <class 'gluon.html.BUTTON'>, 'CAT': <class 'gluon.html.CAT'>, 'CENTER': <class 'gluon.html.CENTER'>, ...}, layer='/home/mka/web2py/applications/kurssihallinta/controllers/opettaja.py')"
p84
sS'func'
p85
S'restricted'
p86
sa(dp87
g62
S'/home/mka/web2py/applications/kurssihallinta/controllers/opettaja.py'
p88
sg64
(dp89
sg70
I70
sg71
(dp90
I64
S'    oppilaita_kurssilla = 1'
p91
sI65
S'    #db(db.kurssi.id > 0).count()'
p92
sI66
S"    response.view = 'opettaja/opettaja_yksi_kurssi.html'"
p93
sI67
S'    #return dict(my_kurssi_id=my_kurssi_id,oppilaita_kurssilla=oppilaita_kurssilla)'
p94
sI68
S'    return dict(oppilaita_kurssilla=oppilaita_kurssilla)'
p95
sI59
S"    ##or redirect(URL('opettaja','yksi_kurssi'))"
p96
sI60
S'    #print "jurssiID",request.vars.kurssi_id'
p97
sI61
S'    #my_kurssi_id = request.vars.kurssi_id'
p98
sI62
S'    #print "OK",my_kurssi_id'
p99
sI63
S'    ##kurssit = db(db.kurssi.id == db.opettaja.kurssi_id).select()'
p100
ssg83
S'()'
p101
sg85
S'<module>'
p102
sa(dp103
g62
S'/home/mka/web2py/gluon/globals.py'
p104
sg64
(dp105
S'self'
p106
S'undefined'
p107
sS'f'
S'<function kaikki_kurssit>'
p108
ssg70
I385
sg71
(dp109
I384
S'        self._vars = None'
p110
sI385
S'        self._caller = lambda f: f()'
p111
sI386
S'        self._view_environment = None'
p112
sI387
S'        self._custom_commit = None'
p113
sI388
S'        self._custom_rollback = None'
p114
sI389
S''
sI380
S'        self.menu = []             # used by the default view layout'
p115
sI381
S'        self.files = []            # used by web2py_ajax.html'
p116
sI382
S'        self.generic_patterns = []  # patterns to allow generic views'
p117
sI383
S"        self.delimiters = ('{{', '}}')"
p118
ssg83
S'(f=<function kaikki_kurssit>)'
p119
sg85
S'<lambda>'
p120
sa(dp121
g62
S'/home/mka/web2py/gluon/tools.py'
p122
sg64
(dp123
S'action'
p124
S'<function kaikki_kurssit>'
p125
sS'a'
S'()'
p126
sS'b'
g45
ssg70
I3287
sg71
(dp127
I3282
S'                    flag = condition'
p128
sI3283
S'                if not flag:'
p129
sI3284
S'                    current.session.flash = self.messages.access_denied'
p130
sI3285
S'                    return call_or_redirect('
p131
sI3286
S'                        self.settings.on_failed_authorization)'
p132
sI3287
S'                return action(*a, **b)'
p133
sI3288
S'            f.__doc__ = action.__doc__'
p134
sI3289
S'            f.__name__ = action.__name__'
p135
sI3290
S'            f.__dict__.update(action.__dict__)'
p136
sI3291
S'            return f'
p137
ssg83
S'(*a=(), **b={})'
p138
sg85
S'f'
sa(dp139
g62
S'/home/mka/web2py/applications/kurssihallinta/controllers/opettaja.py'
p140
sg64
(dp141
S'form.process'
p142
S'<bound method SQLFORM.process of <gluon.sqlhtml.SQLFORM object>>'
p143
sS').accepted'
p144
g107
sS'form'
p145
S'<gluon.sqlhtml.SQLFORM object>'
p146
ssg70
I38
sg71
(dp147
I33
S'    #pit\xc3\xa4\xc3\xa4 pudottaa pois jottei fake-tietokanta kasva kokoajan'
p148
sI34
S'    db.valitsekurssi.drop()'
p149
sI35
S''
sI36
S"    response.view = 'opettaja/opettaja_kaikki_kurssit.html'"
p150
sI37
S''
sI38
S'    if form.process().accepted:'
p151
sI39
S'        print "HYV\xc3\x84KSYTTY"'
p152
sI40
S'        #name = form.vars.visitor_name'
p153
sI41
S"        #redirect(URL('second',vars=dict(name=name)))"
p154
sI42
S''
ssg83
S'()'
p155
sg85
S'kaikki_kurssit'
p156
sa(dp157
g62
S'/home/mka/web2py/gluon/html.py'
p158
sg64
(dp159
S'self'
p160
S'<gluon.sqlhtml.SQLFORM object>'
p161
sS'self.validate'
p162
S'<bound method SQLFORM.validate of <gluon.sqlhtml.SQLFORM object>>'
p163
sS'kwargs'
p164
S"{'dbio': True}"
p165
ssg70
I2282
sg71
(dp166
I2277
S''
sI2278
S''
sI2279
S'        """'
p167
sI2280
S"        kwargs['dbio'] = kwargs.get('dbio', True)"
p168
sI2281
S'                                    # necessary for SQLHTML forms'
p169
sI2282
S'        self.validate(**kwargs)'
p170
sI2283
S'        return self'
p171
sI2284
S''
sI2285
S'    REDIRECT_JS = "window.location=\'%s\';return false"'
p172
sI2286
S''
ssg83
S"(self=<gluon.sqlhtml.SQLFORM object>, **kwargs={'dbio': True})"
p173
sg85
S'process'
p174
sa(dp175
g62
S'/home/mka/web2py/gluon/html.py'
p176
sg64
(dp177
S'self'
p178
S'<gluon.sqlhtml.SQLFORM object>'
p179
sS'self.accepts'
p180
S'<bound method SQLFORM.accepts of <gluon.sqlhtml.SQLFORM object>>'
p181
sS'kwargs'
p182
S"{'dbio': True, 'request_vars': <Storage {'kurssin_nimi': '1', '_formkey': 'f51b...7-fe5098ab56da', '_formname': 'no_table/create'}>, 'session': <Storage {'_formkey[no_table/create]': [], 'auth...gin]': ['352c9438-f165-46ea-8e65-abdeded0f97b']}>}"
p183
ssg70
I2219
sg71
(dp184
I2214
S"        for key in ('message_onsuccess', 'message_onfailure', 'onsuccess',"
p185
sI2215
S"                    'onfailure', 'next', 'message_onchange', 'onchange'):"
p186
sI2216
S'            if key in kwargs:'
p187
sI2217
S'                del kwargs[key]'
p188
sI2218
S''
sI2219
S'        if self.accepts(**kwargs):'
p189
sI2220
S"            if onsuccess == 'flash':"
p190
sI2221
S'                if next:'
p191
sI2222
S'                    current.session.flash = message_onsuccess'
p192
sI2223
S'                else:'
p193
ssg83
S"(self=<gluon.sqlhtml.SQLFORM object>, **kwargs={'dbio': True, 'request_vars': <Storage {'kurssin_nimi': '1', '_formkey': 'f51b...7-fe5098ab56da', '_formname': 'no_table/create'}>, 'session': <Storage {'_formkey[no_table/create]': [], 'auth...gin]': ['352c9438-f165-46ea-8e65-abdeded0f97b']}>})"
p194
sg85
S'validate'
p195
sa(dp196
g62
S'/home/mka/web2py/gluon/sqlhtml.py'
p197
sg64
(dp198
S'kwargs'
p199
g45
ssg70
I1381
sg71
(dp200
I1376
S'            session,'
p201
sI1377
S'            formname,'
p202
sI1378
S'            keepvalues,'
p203
sI1379
S'            onvalidation,'
p204
sI1380
S'            hideerror=hideerror,'
p205
sI1381
S'            **kwargs'
p206
sI1382
S'        )'
p207
sI1383
S''
sI1384
S'        self.deleted = \\'
p208
sI1385
S'            request_vars.get(self.FIELDNAME_REQUEST_DELETE, False)'
p209
ssg83
S"(self=<gluon.sqlhtml.SQLFORM object>, request_vars=<Storage {'kurssin_nimi': '1', '_formkey': 'f51b...7-fe5098ab56da', '_formname': 'no_table/create'}>, session=<Storage {'_formkey[no_table/create]': [], 'auth...gin]': ['352c9438-f165-46ea-8e65-abdeded0f97b']}>, formname='no_table/create', keepvalues=False, onvalidation=None, dbio=True, hideerror=False, detect_record_change=False, **kwargs={})"
p210
sg85
S'accepts'
p211
sa(dp212
g62
S'/home/mka/web2py/gluon/html.py'
p213
sg64
(dp214
S'status'
p215
S'True'
p216
sS'self'
p217
S'<gluon.sqlhtml.SQLFORM object>'
p218
sS'self._traverse'
p219
S'<bound method SQLFORM._traverse of <gluon.sqlhtml.SQLFORM object>>'
p220
sS'hideerror'
p221
S'False'
p222
ssg70
I2100
sg71
(dp223
I2095
S'        if status and session:'
p224
sI2096
S'            # check if editing a record that has been modified by the server'
p225
sI2097
S"            if hasattr(self, 'record_hash') and self.record_hash != formkey:"
p226
sI2098
S'                status = False'
p227
sI2099
S'                self.record_changed = changed = True'
p228
sI2100
S'        status = self._traverse(status, hideerror)'
p229
sI2101
S'        status = self.assert_status(status, request_vars)'
p230
sI2102
S'        if onvalidation:'
p231
sI2103
S'            if isinstance(onvalidation, dict):'
p232
sI2104
S"                onsuccess = onvalidation.get('onsuccess', None)"
p233
ssg83
S"(self=<gluon.sqlhtml.SQLFORM object>, request_vars=<Storage {'kurssin_nimi': '1', '_formkey': 'f51b...7-fe5098ab56da', '_formname': 'no_table/create'}>, session=<Storage {'_formkey[no_table/create]': [], 'auth...gin]': ['352c9438-f165-46ea-8e65-abdeded0f97b']}>, formname='no_table/create', keepvalues=False, onvalidation=None, hideerror=False, **kwargs={})"
p234
sg85
g211
sa(dp235
g62
S'/home/mka/web2py/gluon/html.py'
p236
sg64
(dp237
S'status'
p238
g216
sS'newstatus'
p239
g216
sS'c'
S'<gluon.html.TABLE object>'
p240
sS'hideerror'
p241
g222
sS'c._traverse'
p242
S'<bound method TABLE._traverse of <gluon.html.TABLE object>>'
p243
ssg70
I872
sg71
(dp244
I867
S'                c.latest = self.latest'
p245
sI868
S'                c.session = self.session'
p246
sI869
S'                c.formname = self.formname'
p247
sI870
S"                if not c.attributes.get('hideerror'):"
p248
sI871
S"                    c['hideerror'] = hideerror or self.attributes.get('hideerror')"
p249
sI872
S'                newstatus = c._traverse(status, hideerror) and newstatus'
p250
sI873
S''
sI874
S'        # for input, textarea, select, option'
p251
sI875
S"        # deal with 'value' and 'validation'"
p252
sI876
S''
ssg83
S'(self=<gluon.sqlhtml.SQLFORM object>, status=True, hideerror=False)'
p253
sg85
S'_traverse'
p254
sa(dp255
g62
S'/home/mka/web2py/gluon/html.py'
p256
sg64
(dp257
S'status'
p258
g216
sS'newstatus'
p259
g216
sS'c'
S'<gluon.html.TR object>'
p260
sS'hideerror'
p261
g222
sS'c._traverse'
p262
S'<bound method TR._traverse of <gluon.html.TR object>>'
p263
ssg70
I872
sg71
(dp264
I867
S'                c.latest = self.latest'
p265
sI868
S'                c.session = self.session'
p266
sI869
S'                c.formname = self.formname'
p267
sI870
S"                if not c.attributes.get('hideerror'):"
p268
sI871
S"                    c['hideerror'] = hideerror or self.attributes.get('hideerror')"
p269
sI872
S'                newstatus = c._traverse(status, hideerror) and newstatus'
p270
sI873
S''
sI874
S'        # for input, textarea, select, option'
p271
sI875
S"        # deal with 'value' and 'validation'"
p272
sI876
S''
ssg83
S'(self=<gluon.html.TABLE object>, status=True, hideerror=False)'
p273
sg85
g254
sa(dp274
g62
S'/home/mka/web2py/gluon/html.py'
p275
sg64
(dp276
S'status'
p277
g216
sS'newstatus'
p278
g216
sS'c'
S'<gluon.html.TD object>'
p279
sS'hideerror'
p280
g222
sS'c._traverse'
p281
S'<bound method TD._traverse of <gluon.html.TD object>>'
p282
ssg70
I872
sg71
(dp283
I867
S'                c.latest = self.latest'
p284
sI868
S'                c.session = self.session'
p285
sI869
S'                c.formname = self.formname'
p286
sI870
S"                if not c.attributes.get('hideerror'):"
p287
sI871
S"                    c['hideerror'] = hideerror or self.attributes.get('hideerror')"
p288
sI872
S'                newstatus = c._traverse(status, hideerror) and newstatus'
p289
sI873
S''
sI874
S'        # for input, textarea, select, option'
p290
sI875
S"        # deal with 'value' and 'validation'"
p291
sI876
S''
ssg83
S'(self=<gluon.html.TR object>, status=True, hideerror=False)'
p292
sg85
g254
sa(dp293
g62
S'/home/mka/web2py/gluon/html.py'
p294
sg64
(dp295
S'status'
p296
g216
sS'newstatus'
p297
g216
sS'c'
S'<gluon.html.SELECT object>'
p298
sS'hideerror'
p299
g222
sS'c._traverse'
p300
S'<bound method SELECT._traverse of <gluon.html.SELECT object>>'
p301
ssg70
I872
sg71
(dp302
I867
S'                c.latest = self.latest'
p303
sI868
S'                c.session = self.session'
p304
sI869
S'                c.formname = self.formname'
p305
sI870
S"                if not c.attributes.get('hideerror'):"
p306
sI871
S"                    c['hideerror'] = hideerror or self.attributes.get('hideerror')"
p307
sI872
S'                newstatus = c._traverse(status, hideerror) and newstatus'
p308
sI873
S''
sI874
S'        # for input, textarea, select, option'
p309
sI875
S"        # deal with 'value' and 'validation'"
p310
sI876
S''
ssg83
S'(self=<gluon.html.TD object>, status=True, hideerror=False)'
p311
sg85
g254
sa(dp312
g62
S'/home/mka/web2py/gluon/html.py'
p313
sg64
(dp314
S'newstatus'
p315
g216
sS'self'
p316
S'<gluon.html.SELECT object>'
p317
sS'self._validate'
p318
S'<bound method SELECT._validate of <gluon.html.SELECT object>>'
p319
ssg70
I879
sg71
(dp320
I874
S'        # for input, textarea, select, option'
p321
sI875
S"        # deal with 'value' and 'validation'"
p322
sI876
S''
sI877
S"        name = self['_name']"
p323
sI878
S'        if newstatus:'
p324
sI879
S'            newstatus = self._validate()'
p325
sI880
S'            self._postprocessing()'
p326
sI881
S"        elif 'old_value' in self.attributes:"
p327
sI882
S"            self['value'] = self['old_value']"
p328
sI883
S'            self._postprocessing()'
p329
ssg83
S'(self=<gluon.html.SELECT object>, status=True, hideerror=False)'
p330
sg85
g254
sa(dp331
g62
S'/home/mka/web2py/gluon/html.py'
p332
sg64
(dp333
S'errors'
p334
g107
sS'value'
p335
S"'1'"
p336
sS'validator'
p337
S'<gluon.validators.IS_IN_DB object>'
p338
ssg70
I1843
sg71
(dp339
I1838
S"        requires = self['requires']"
p340
sI1839
S'        if requires:'
p341
sI1840
S'            if not isinstance(requires, (list, tuple)):'
p342
sI1841
S'                requires = [requires]'
p343
sI1842
S'            for validator in requires:'
p344
sI1843
S'                (value, errors) = validator(value)'
p345
sI1844
S'                if not errors is None:'
p346
sI1845
S'                    self.vars[name] = value'
p347
sI1846
S'                    self.errors[name] = errors'
p348
sI1847
S'                    break'
p349
ssg83
S'(self=<gluon.html.SELECT object>)'
p350
sg85
S'_validate'
p351
sa(dp352
g62
S'/home/mka/web2py/gluon/validators.py'
p353
sg64
(dp354
S'self.dbset'
p355
S'<Set None>'
p356
sS'table'
p357
g107
sS'self'
p358
S'<gluon.validators.IS_IN_DB object>'
p359
sS'self.dbset.db'
p360
S'<DAL uri="sqlite://storage.sqlite">'
p361
sS'self.ktable'
p362
S"'valitsekurssi'"
p363
ssg70
I568
sg71
(dp364
I563
S'        if zero and not self.zero is None and not self.multiple:'
p365
sI564
S"            items.insert(0, ('', self.zero))"
p366
sI565
S'        return items'
p367
sI566
S''
sI567
S'    def __call__(self, value):'
p368
sI568
S'        table = self.dbset.db[self.ktable]'
p369
sI569
S'        field = table[self.kfield]'
p370
sI570
S'        if self.multiple:'
p371
sI571
S'            if self._and:'
p372
sI572
S'                raise NotImplementedError'
p373
ssg83
S"(self=<gluon.validators.IS_IN_DB object>, value='1')"
p374
sg85
S'__call__'
p375
sa(dp376
g62
S'/home/mka/web2py/gluon/dal.py'
p377
sg64
(dp378
S'builtinstr'
p379
S"<type 'str'>"
p380
sS'self.__getattr__'
p381
S'<bound method DAL.__getattr__ of <DAL uri="sqlite://storage.sqlite">>'
p382
sS'self'
p383
S'<DAL uri="sqlite://storage.sqlite">'
p384
sS'key'
p385
S"'valitsekurssi'"
p386
ssg70
I8322
sg71
(dp387
I8320
S''
sI8321
S'    def __getitem__(self, key):'
p388
sI8322
S'        return self.__getattr__(str(key))'
p389
sI8323
S''
sI8324
S'    def __getattr__(self, key):'
p390
sI8325
S"        if ogetattr(self,'_lazy_tables') and \\"
p391
sI8326
S"                key in ogetattr(self,'_LAZY_TABLES'):"
p392
sI8317
S'    def __iter__(self):'
p393
sI8318
S'        for tablename in self.tables:'
p394
sI8319
S'            yield self[tablename]'
p395
ssg83
S'(self=<DAL uri="sqlite://storage.sqlite">, key=\'valitsekurssi\')'
p396
sg85
g20
sa(dp397
g62
S'/home/mka/web2py/gluon/dal.py'
p398
sg64
(dp399
S'self'
p400
S'<DAL uri="sqlite://storage.sqlite">'
p401
sS'global ogetattr'
p402
S"<slot wrapper '__getattribute__' of 'object' objects>"
p403
sS'key'
p404
S"'valitsekurssi'"
p405
ssg70
I8329
sg71
(dp406
I8324
S'    def __getattr__(self, key):'
p407
sI8325
S"        if ogetattr(self,'_lazy_tables') and \\"
p408
sI8326
S"                key in ogetattr(self,'_LAZY_TABLES'):"
p409
sI8327
S'            tablename, fields, args = self._LAZY_TABLES.pop(key)'
p410
sI8328
S'            return self.lazy_define_table(tablename,*fields,**args)'
p411
sI8329
S'        return ogetattr(self, key)'
p412
sI8330
S''
sI8331
S'    def __setitem__(self, key, value):'
p413
sI8332
S'        osetattr(self, str(key), value)'
p414
sI8333
S''
ssg83
S'(self=<DAL uri="sqlite://storage.sqlite">, key=\'valitsekurssi\')'
p415
sg85
S'__getattr__'
p416
sasS'pyver'
p417
S'Python 2.7.3: /usr/bin/python (prefix: /usr)'
p418
sS'session'
p419
g57
(S'sw\t\x00\x00<div><table><tr><td style="font-weight:bold;vertical-align:top;">auth</td><td style="vertical-align:top;">:</td><td><div><table><tr><td style="font-weight:bold;vertical-align:top;">expiration</td><td style="vertical-align:top;">:</td><td><div>3600</div></td></tr><tr><td style="font-weight:bold;vertical-align:top;">hmac_key</td><td style="vertical-align:top;">:</td><td><div>3209526a-c21f-4bee-8de4-f7382ee413c8</div></td></tr><tr><td style="font-weight:bold;vertical-align:top;">last_visit</td><td style="vertical-align:top;">:</td><td><div>datetime.datetime(2014, 6, 8, 13, 56, 47, 3663)</div></td></tr><tr><td style="font-weight:bold;vertical-align:top;">remember</td><td style="vertical-align:top;">:</td><td><div>False</div></td></tr><tr><td style="font-weight:bold;vertical-align:top;">user</td><td style="vertical-align:top;">:</td><td><div><table><tr><td style="font-weight:bold;vertical-align:top;">email</td><td style="vertical-align:top;">:</td><td><div>onerva.opettaja@gmail.com</div></td></tr><tr><td style="font-weight:bold;vertical-align:top;">first_name</td><td style="vertical-align:top;">:</td><td><div>Onerva</div></td></tr><tr><td style="font-weight:bold;vertical-align:top;">id</td><td style="vertical-align:top;">:</td><td><div>4L</div></td></tr><tr><td style="font-weight:bold;vertical-align:top;">last_name</td><td style="vertical-align:top;">:</td><td><div>Opettaja</div></td></tr><tr><td style="font-weight:bold;vertical-align:top;">registration_id</td><td style="vertical-align:top;">:</td><td><div></div></td></tr><tr><td style="font-weight:bold;vertical-align:top;">registration_key</td><td style="vertical-align:top;">:</td><td><div></div></td></tr><tr><td style="font-weight:bold;vertical-align:top;">reset_password_key</td><td style="vertical-align:top;">:</td><td><div></div></td></tr><tr><td style="font-weight:bold;vertical-align:top;">username</td><td style="vertical-align:top;">:</td><td><div>onerva</div></td></tr></table></div></td></tr><tr><td style="font-weight:bold;vertical-align:top;">user_groups</td><td style="vertical-align:top;">:</td><td><div><table><tr><td style="font-weight:bold;vertical-align:top;">1</td><td style="vertical-align:top;">:</td><td><div>opettaja</div></td></tr></table></div></td></tr></table></div></td></tr><tr><td style="font-weight:bold;vertical-align:top;">flash</td><td style="vertical-align:top;">:</td><td><div>None</div></td></tr></table></div>'
tRp420
sS'etype'
p421
S"<type 'exceptions.AttributeError'>"
p422
sS'date'
p423
S'Sun Jun  8 13:57:03 2014'
p424
sS'response'
p425
g57
(S's\'2\x00\x00<div><table><tr><td style="font-weight:bold;vertical-align:top;">body</td><td style="vertical-align:top;">:</td><td><div>&lt;cStringIO.StringO object at 0xa6e64980&gt;</div></td></tr><tr><td style="font-weight:bold;vertical-align:top;">cookies</td><td style="vertical-align:top;">:</td><td><div><table><tr><td style="font-weight:bold;vertical-align:top;">session_id_kurssihallinta</td><td style="vertical-align:top;">:</td><td><div>127.0.0.1-2c228f16-b73c-4322-98a9-ec3e70ee426f<table><tr><td style="font-weight:bold;vertical-align:top;">comment</td><td style="vertical-align:top;">:</td><td><div></div></td></tr><tr><td style="font-weight:bold;vertical-align:top;">domain</td><td style="vertical-align:top;">:</td><td><div></div></td></tr><tr><td style="font-weight:bold;vertical-align:top;">expires</td><td style="vertical-align:top;">:</td><td><div></div></td></tr><tr><td style="font-weight:bold;vertical-align:top;">httponly</td><td style="vertical-align:top;">:</td><td><div></div></td></tr><tr><td style="font-weight:bold;vertical-align:top;">max-age</td><td style="vertical-align:top;">:</td><td><div></div></td></tr><tr><td style="font-weight:bold;vertical-align:top;">path</td><td style="vertical-align:top;">:</td><td><div>/</div></td></tr><tr><td style="font-weight:bold;vertical-align:top;">secure</td><td style="vertical-align:top;">:</td><td><div></div></td></tr><tr><td style="font-weight:bold;vertical-align:top;">version</td><td style="vertical-align:top;">:</td><td><div></div></td></tr></table></div></td></tr></table></div></td></tr><tr><td style="font-weight:bold;vertical-align:top;">delimiters</td><td style="vertical-align:top;">:</td><td><div><table><tr><td><div>{{</div></td></tr><tr><td><div>}}</div></td></tr></table></div></td></tr><tr><td style="font-weight:bold;vertical-align:top;">files</td><td style="vertical-align:top;">:</td><td><div><table></table></div></td></tr><tr><td style="font-weight:bold;vertical-align:top;">flash</td><td style="vertical-align:top;">:</td><td><div></div></td></tr><tr><td style="font-weight:bold;vertical-align:top;">generic_patterns</td><td style="vertical-align:top;">:</td><td><div><table></table></div></td></tr><tr><td style="font-weight:bold;vertical-align:top;">google_analytics_id</td><td style="vertical-align:top;">:</td><td><div>None</div></td></tr><tr><td style="font-weight:bold;vertical-align:top;">headers</td><td style="vertical-align:top;">:</td><td><div><table><tr><td style="font-weight:bold;vertical-align:top;">X-Powered-By</td><td style="vertical-align:top;">:</td><td><div>web2py</div></td></tr></table></div></td></tr><tr><td style="font-weight:bold;vertical-align:top;">menu</td><td style="vertical-align:top;">:</td><td><div><table><tr><td><div><table><tr><td><div>Home</div></td></tr><tr><td><div>False</div></td></tr><tr><td><div>/kurssihallinta/default/index</div></td></tr><tr><td><div><table></table></div></td></tr></table></div></td></tr><tr><td><div><table><tr><td><div><span style="color:yellow">web2py</span></div></td></tr><tr><td><div>False</div></td></tr><tr><td><div>None</div></td></tr><tr><td><div><table><tr><td><div><table><tr><td><div>My Sites</div></td></tr><tr><td><div>False</div></td></tr><tr><td><div>/admin/default/site</div></td></tr></table></div></td></tr><tr><td><div><table><tr><td><div>This App</div></td></tr><tr><td><div>False</div></td></tr><tr><td><div>/admin/default/design/kurssihallinta</div></td></tr><tr><td><div>[(&lt;lazyT &#x27;Controller&#x27;&gt;, False, &#x27;/admin/default/edit/kurssihallinta/controllers/opettaja.py&#x27;), (&lt;lazyT &#x27;View&#x27;&gt;, False, &#x27;/admin/default/edit/kurssihallinta/views/opettaja/kaikki_kurssit.html&#x27;), (&lt;lazyT &#x27;Layout&#x27;&gt;, False, &#x27;/admin/default/edit/kurssihallinta/views/layout.html&#x27;), (&lt;lazyT &#x27;Stylesheet&#x27;&gt;, False, &#x27;/admin/default/edit/kurssihallinta/static/css/web2py.css&#x27;), (&lt;lazyT &#x27;DB Model&#x27;&gt;, False, &#x27;/admin/default/edit/kurssihallinta/models/db.py&#x27;), (&lt;lazyT &#x27;Menu Model&#x27;&gt;, False, &#x27;/admin/default/edit/kurssihallinta/models/menu.py&#x27;), (&lt;lazyT &#x27;Database&#x27;&gt;, False, &#x27;/kurssihallinta/appadmin/index&#x27;), (&lt;lazyT &#x27;Errors&#x27;&gt;, False, &#x27;/admin/default/errors/kurssihallinta&#x27;), (&lt;lazyT &#x27;About&#x27;&gt;, False, &#x27;/admin/default/about/kurssihallinta&#x27;)]</div></td></tr></table></div></td></tr><tr><td><div><table><tr><td><div>web2py.com</div></td></tr><tr><td><div>False</div></td></tr><tr><td><div>http://www.web2py.com</div></td></tr><tr><td><div>[(&lt;lazyT &#x27;Download&#x27;&gt;, False, &#x27;http://www.web2py.com/examples/default/download&#x27;), (&lt;lazyT &#x27;Support&#x27;&gt;, False, &#x27;http://www.web2py.com/examples/default/support&#x27;), (&lt;lazyT &#x27;Demo&#x27;&gt;, False, &#x27;http://web2py.com/demo_admin&#x27;), (&lt;lazyT &#x27;Quick Examples&#x27;&gt;, False, &#x27;http://web2py.com/examples/default/examples&#x27;), (&lt;lazyT &#x27;FAQ&#x27;&gt;, False, &#x27;http://web2py.com/AlterEgo&#x27;), (&lt;lazyT &#x27;Videos&#x27;&gt;, False, &#x27;http://www.web2py.com/examples/default/videos/&#x27;), (&lt;lazyT &#x27;Free Applications&#x27;&gt;, False, &#x27;http://web2py.com/appliances&#x27;), (&lt;lazyT &#x27;Plugins&#x27;&gt;, False, &#x27;http://web2py.com/plugins&#x27;), (&lt;lazyT &#x27;Layouts&#x27;&gt;, False, &#x27;http://web2py.com/layouts&#x27;), (&lt;lazyT &#x27;Recipes&#x27;&gt;, False, &#x27;http://web2pyslices.com/&#x27;), (&lt;lazyT &#x27;Semantic&#x27;&gt;, False, &#x27;http://web2py.com/semantic&#x27;)]</div></td></tr></table></div></td></tr><tr><td><div><table><tr><td><div>Documentation</div></td></tr><tr><td><div>False</div></td></tr><tr><td><div>http://www.web2py.com/book</div></td></tr><tr><td><div>[(&lt;lazyT &#x27;Preface&#x27;&gt;, False, &#x27;http://www.web2py.com/book/default/chapter/00&#x27;), (&lt;lazyT &#x27;Introduction&#x27;&gt;, False, &#x27;http://www.web2py.com/book/default/chapter/01&#x27;), (&lt;lazyT &#x27;Python&#x27;&gt;, False, &#x27;http://www.web2py.com/book/default/chapter/02&#x27;), (&lt;lazyT &#x27;Overview&#x27;&gt;, False, &#x27;http://www.web2py.com/book/default/chapter/03&#x27;), (&lt;lazyT &#x27;The Core&#x27;&gt;, False, &#x27;http://www.web2py.com/book/default/chapter/04&#x27;), (&lt;lazyT &#x27;The Views&#x27;&gt;, False, &#x27;http://www.web2py.com/book/default/chapter/05&#x27;), (&lt;lazyT &#x27;Database&#x27;&gt;, False, &#x27;http://www.web2py.com/book/default/chapter/06&#x27;), (&lt;lazyT &#x27;Forms and Validators&#x27;&gt;, False, &#x27;http://www.web2py.com/book/default/chapter/07&#x27;), (&lt;lazyT &#x27;Email and SMS&#x27;&gt;, False, &#x27;http://www.web2py.com/book/default/chapter/08&#x27;), (&lt;lazyT &#x27;Access Control&#x27;&gt;, False, &#x27;http://www.web2py.com/book/default/chapter/09&#x27;), (&lt;lazyT &#x27;Services&#x27;&gt;, False, &#x27;http://www.web2py.com/book/default/chapter/10&#x27;), (&lt;lazyT &#x27;Ajax Recipes&#x27;&gt;, False, &#x27;http://www.web2py.com/book/default/chapter/11&#x27;), (&lt;lazyT &#x27;Components and Plugins&#x27;&gt;, False, &#x27;http://www.web2py.com/book/default/chapter/12&#x27;), (&lt;lazyT &#x27;Deployment Recipes&#x27;&gt;, False, &#x27;http://www.web2py.com/book/default/chapter/13&#x27;), (&lt;lazyT &#x27;Other Recipes&#x27;&gt;, False, &#x27;http://www.web2py.com/book/default/chapter/14&#x27;), (&lt;lazyT &#x27;Buy this book&#x27;&gt;, False, &#x27;http://stores.lulu.com/web2py&#x27;)]</div></td></tr></table></div></td></tr><tr><td><div><table><tr><td><div>Community</div></td></tr><tr><td><div>False</div></td></tr><tr><td><div>None</div></td></tr><tr><td><div>[(&lt;lazyT &#x27;Groups&#x27;&gt;, False, &#x27;http://www.web2py.com/examples/default/usergroups&#x27;), (&lt;lazyT &#x27;Twitter&#x27;&gt;, False, &#x27;http://twitter.com/web2py&#x27;), (&lt;lazyT &#x27;Live Chat&#x27;&gt;, False, &#x27;http://webchat.freenode.net/?channels=web2py&#x27;)]</div></td></tr></table></div></td></tr><tr><td><div><table><tr><td><div>Plugins</div></td></tr><tr><td><div>False</div></td></tr><tr><td><div>None</div></td></tr><tr><td><div>[(&#x27;plugin_wiki&#x27;, False, &#x27;http://web2py.com/examples/default/download&#x27;), (&lt;lazyT &#x27;Other Plugins&#x27;&gt;, False, &#x27;http://web2py.com/plugins&#x27;), (&lt;lazyT &#x27;Layout Plugins&#x27;&gt;, False, &#x27;http://web2py.com/layouts&#x27;)]</div></td></tr></table></div></td></tr></table></div></td></tr></table></div></td></tr></table></div></td></tr><tr><td style="font-weight:bold;vertical-align:top;">meta</td><td style="vertical-align:top;">:</td><td><div><table><tr><td style="font-weight:bold;vertical-align:top;">author</td><td style="vertical-align:top;">:</td><td><div>Your Name &lt;you@example.com&gt;</div></td></tr><tr><td style="font-weight:bold;vertical-align:top;">copyright</td><td style="vertical-align:top;">:</td><td><div>Copyright 2011</div></td></tr><tr><td style="font-weight:bold;vertical-align:top;">description</td><td style="vertical-align:top;">:</td><td><div>a cool new app</div></td></tr><tr><td style="font-weight:bold;vertical-align:top;">generator</td><td style="vertical-align:top;">:</td><td><div>Web2py Web Framework</div></td></tr><tr><td style="font-weight:bold;vertical-align:top;">keywords</td><td style="vertical-align:top;">:</td><td><div>web2py, python, framework</div></td></tr></table></div></td></tr><tr><td style="font-weight:bold;vertical-align:top;">models_to_run</td><td style="vertical-align:top;">:</td><td><div><table><tr><td><div>^\\w+\\.py$</div></td></tr><tr><td><div>^opettaja/\\w+\\.py$</div></td></tr><tr><td><div>^opettaja/kaikki_kurssit/\\w+\\.py$</div></td></tr></table></div></td></tr><tr><td style="font-weight:bold;vertical-align:top;">postprocessing</td><td style="vertical-align:top;">:</td><td><div><table></table></div></td></tr><tr><td style="font-weight:bold;vertical-align:top;">session_client</td><td style="vertical-align:top;">:</td><td><div>127.0.0.1</div></td></tr><tr><td style="font-weight:bold;vertical-align:top;">session_cookie_compression_level</td><td style="vertical-align:top;">:</td><td><div>None</div></td></tr><tr><td style="font-weight:bold;vertical-align:top;">session_cookie_expires</td><td style="vertical-align:top;">:</td><td><div>None</div></td></tr><tr><td style="font-weight:bold;vertical-align:top;">session_cookie_key</td><td style="vertical-align:top;">:</td><td><div>None</div></td></tr><tr><td style="font-weight:bold;vertical-align:top;">session_data_name</td><td style="vertical-align:top;">:</td><td><div>session_data_kurssihallinta</div></td></tr><tr><td style="font-weight:bold;vertical-align:top;">session_file</td><td style="vertical-align:top;">:</td><td><div>&lt;open file &#x27;/home/mka/web2py/applications/kurssihallinta/sessions/127.0.0.1-2c228f16-b73c-4322-98a9-ec3e70ee426f&#x27;, mode &#x27;rb+&#x27; at 0xa6f88bd0&gt;</div></td></tr><tr><td style="font-weight:bold;vertical-align:top;">session_filename</td><td style="vertical-align:top;">:</td><td><div>/home/mka/web2py/applications/kurssihallinta/sessions/127.0.0.1-2c228f16-b73c-4322-98a9-ec3e70ee426f</div></td></tr><tr><td style="font-weight:bold;vertical-align:top;">session_hash</td><td style="vertical-align:top;">:</td><td><div>a0ce3caa31dbabdac3f90549b174027d</div></td></tr><tr><td style="font-weight:bold;vertical-align:top;">session_id</td><td style="vertical-align:top;">:</td><td><div>127.0.0.1-2c228f16-b73c-4322-98a9-ec3e70ee426f</div></td></tr><tr><td style="font-weight:bold;vertical-align:top;">session_id_name</td><td style="vertical-align:top;">:</td><td><div>session_id_kurssihallinta</div></td></tr><tr><td style="font-weight:bold;vertical-align:top;">session_locked</td><td style="vertical-align:top;">:</td><td><div>True</div></td></tr><tr><td style="font-weight:bold;vertical-align:top;">session_masterapp</td><td style="vertical-align:top;">:</td><td><div>kurssihallinta</div></td></tr><tr><td style="font-weight:bold;vertical-align:top;">session_new</td><td style="vertical-align:top;">:</td><td><div>False</div></td></tr><tr><td style="font-weight:bold;vertical-align:top;">session_storage_type</td><td style="vertical-align:top;">:</td><td><div>file</div></td></tr><tr><td style="font-weight:bold;vertical-align:top;">status</td><td style="vertical-align:top;">:</td><td><div>200</div></td></tr><tr><td style="font-weight:bold;vertical-align:top;">subtitle</td><td style="vertical-align:top;">:</td><td><div> </div></td></tr><tr><td style="font-weight:bold;vertical-align:top;">title</td><td style="vertical-align:top;">:</td><td><div>Kurssihallinta</div></td></tr><tr><td style="font-weight:bold;vertical-align:top;">view</td><td style="vertical-align:top;">:</td><td><div>opettaja/opettaja_kaikki_kurssit.html</div></td></tr></table></div>'
tRp426
sS'locals'
p427
(dp428
S'self'
p429
S'<DAL uri="sqlite://storage.sqlite">'
p430
sS'key'
p431
S"'valitsekurssi'"
p432
sssS'traceback'
p433
S'Traceback (most recent call last):\n  File "/home/mka/web2py/gluon/restricted.py", line 220, in restricted\n    exec ccode in environment\n  File "/home/mka/web2py/applications/kurssihallinta/controllers/opettaja.py", line 70, in <module>\n  File "/home/mka/web2py/gluon/globals.py", line 385, in <lambda>\n    self._caller = lambda f: f()\n  File "/home/mka/web2py/gluon/tools.py", line 3287, in f\n    return action(*a, **b)\n  File "/home/mka/web2py/applications/kurssihallinta/controllers/opettaja.py", line 38, in kaikki_kurssit\n    if form.process().accepted:\n  File "/home/mka/web2py/gluon/html.py", line 2282, in process\n    self.validate(**kwargs)\n  File "/home/mka/web2py/gluon/html.py", line 2219, in validate\n    if self.accepts(**kwargs):\n  File "/home/mka/web2py/gluon/sqlhtml.py", line 1381, in accepts\n    **kwargs\n  File "/home/mka/web2py/gluon/html.py", line 2100, in accepts\n    status = self._traverse(status, hideerror)\n  File "/home/mka/web2py/gluon/html.py", line 872, in _traverse\n    newstatus = c._traverse(status, hideerror) and newstatus\n  File "/home/mka/web2py/gluon/html.py", line 872, in _traverse\n    newstatus = c._traverse(status, hideerror) and newstatus\n  File "/home/mka/web2py/gluon/html.py", line 872, in _traverse\n    newstatus = c._traverse(status, hideerror) and newstatus\n  File "/home/mka/web2py/gluon/html.py", line 872, in _traverse\n    newstatus = c._traverse(status, hideerror) and newstatus\n  File "/home/mka/web2py/gluon/html.py", line 879, in _traverse\n    newstatus = self._validate()\n  File "/home/mka/web2py/gluon/html.py", line 1843, in _validate\n    (value, errors) = validator(value)\n  File "/home/mka/web2py/gluon/validators.py", line 568, in __call__\n    table = self.dbset.db[self.ktable]\n  File "/home/mka/web2py/gluon/dal.py", line 8322, in __getitem__\n    return self.__getattr__(str(key))\n  File "/home/mka/web2py/gluon/dal.py", line 8329, in __getattr__\n    return ogetattr(self, key)\nAttributeError: \'DAL\' object has no attribute \'valitsekurssi\'\n'
p434
s.