(dp1
S'output'
p2
S"<class 'pysqlite2.dbapi2.IntegrityError'> foreign key constraint failed"
p3
sS'layer'
p4
S'/home/mka/web2py/applications/kurssihallinta/controllers/opettaja.py'
p5
sS'code'
p6
S'# -*- coding: utf-8 -*-\n#reload modules\nfrom gluon.custom_import import track_changes; track_changes(True)\nimport opettaja_haut  #tietokantahaut ../modules/opettaja_haut.py\nimport kurssi_haut  #tietokantahaut ../modules/kurssi_haut.py\n\n\n@auth.requires_membership(\'opettaja\')\ndef opettaja_alkusivu():\n    """ opettaja saa valita ensin \n    1) tutkii kurssit\xc3\xb6it\xc3\xa4\n    2) lis\xc3\xa4\xc3\xa4k\xc3\xb6 itselleen uusia kursseja tai uusia kurssit\xc3\xb6iden otsikoita\n    """\n\n    form=FORM(\'Valitse:\',\n              SELECT(\'Tarkasta oppilaiden kurssit\xc3\xb6it\xc3\xa4\',\n                     \'Lis\xc3\xa4\xc3\xa4 kurssien/ kurssit\xc3\xb6iden nimi\xc3\xa4\',\n                     _name="my_selector"),\n              INPUT(_type=\'submit\')\n              )\n\n    if form.process().accepted:\n        if request.vars.my_selector == \'Tarkasta oppilaiden kurssit\xc3\xb6it\xc3\xa4\':\n            redirect(URL(\'opettaja_valitse_kurssi\'))\n        elif request.vars.my_selector == \'Lis\xc3\xa4\xc3\xa4 kurssien/ kurssit\xc3\xb6iden nimi\xc3\xa4\':\n            redirect(URL(\'opettaja_lisaa_kursseja\'))\n\n    return dict(form=form)\n\n@auth.requires_membership(\'opettaja\')\ndef ohjaa_kurssitoiden_otsikoihin(kurssi_ids):\n    """Ohjataan valittujen kurssien kurssitoiden lisaykseen """\n    if kurssi_ids:\n        redirect(URL(\'opettaja_lisaa_kurssitoita\',\n                     vars=dict(kurssi_ids=kurssi_ids)))\n    else:\n        print "OHJATAAN TAKAISIN"\n        #tyhj\xc3\xa4 lista\n        redirect(URL(\'opettaja_lisaa_kursseja\'))\n\n@auth.requires_membership(\'opettaja\')\ndef ohjaa_kurssitoihin(kurssi_ids):\n    """Ohjataan valittujen kurssien kurssitoiden tutkimiseen """\n    if kurssi_ids:\n        redirect(URL(\'opettaja_kurssityot\',vars=dict(kurssi_ids=kurssi_ids)))\n    else:\n        print "OHJATAAN TAKAISIN"\n        #tyhj\xc3\xa4 lista\n        redirect(URL(\'opettaja_lisaa_kursseja\'))\n\n\n@auth.requires_membership(\'opettaja\')\ndef opettaja_lisaa_kursseja():\n    """\n    Opettajan lis\xc3\xa4\xc3\xa4 kursseja tai valitsee kurssin johon lis\xc3\xa4t\xc3\xa4\xc3\xa4n t\xc3\xb6it\xc3\xa4.\n    """\n    import sys\n    #haetaan opettajan kaikki kurssit tietokannasta\n    query = opettaja_haut.hae_opettajan_kaikki_kurssit(db)\n    \n    #tehd\xc3\xa4\xc3\xa4n tietokantahausta lomake\n    headers = {\'kurssi.title\':   \'Kurssi\'}\n    form = SQLFORM.grid(query, create=False, searchable = False, \n                        headers=headers,\n                        field_id = db.kurssi.id,\n                        fields = [db.kurssi.title],\n                        selectable = [(\'Valitse kurssit joihin lis\xc3\xa4\xc3\xa4t t\xc3\xb6it\xc3\xa4 tai joita tarkastat\',lambda ids: ohjaa_kurssitoiden_otsikoihin(ids))])\n\n    response.view = \'opettaja/opettaja_lisaa_kursseja.html\'\n    return dict(form=form)\n\n@auth.requires_membership(\'opettaja\')\ndef opettaja_valitse_kurssi():\n    """\n    Opettaja valitsee osan kursseistaan\n    """\n    #haetaan kaikki opettajan kurssit\n    query = opettaja_haut.hae_opettajan_kaikki_kurssit(db)\n    headers = {\'kurssi.title\':   \'Kurssi\'}\n    #tehd\xc3\xa4\xc3\xa4n lomake jolla voidaan valita osa kursseista tai \n    # lis\xc3\xa4t\xc3\xa4 kursseja\n    form = SQLFORM.grid(query,create=False,searchable=False,\n                        headers = headers,\n                        field_id = db.kurssi.id,\n                        fields = [db.kurssi.title],\n                        selectable = [(\'Valitse tarkastettavat kurssit\',\n                                       lambda ids: ohjaa_kurssitoihin(ids))]\n                        )\n\n    oppilaita_kurssilla = []\n\n    response.view = \'opettaja/opettaja_valitse_kurssi.html\'\n    return dict(form=form)\n\ndef string2lista(ids):\n    """ Tehd\xc3\xa4\xc3\xa4n kurssi id:st\xc3\xa4 lista jos se on string (eli vain yksi id)\n    eli lopputulos on lista joka tapauksessa """\n    if (isinstance(ids, basestring)):\n        ids_lista = ids.split()\n    else:\n        ids_lista = ids\n    return ids_lista\n\n@auth.requires_membership(\'opettaja\')\ndef opettaja_lisaa_kurssitoita():\n    """\n    Opettajan voi lis\xc3\xa4t\xc3\xa4 kurssilleen uusia t\xc3\xb6it\xc3\xa4 (eli t\xc3\xb6iden otsakkeita). \n    """\n    \n    kurssit_ids = string2lista(request.vars.kurssi_ids)\n    session.kurssit_ids = kurssit_ids\n\n    #haetaan valittujen kurssien kurssit\xc3\xb6iden nimet \n    query1 = kurssi_haut.hae_kurssin_kurssitoiden_otsikot(kurssit_ids, db)\n    \n    #submit nappi joka johtaa kurssit\xc3\xb6iden otsikoiden lis\xc3\xa4ykseen\n    form_lisaa = FORM(\'\', INPUT(_type=\'submit\',\n                                _value=\'LIS\xc3\x84\xc3\x84 KURSSITY\xc3\x96IDEN OTSIKOITA !\'))\n    \n    #kurssin kurssit\xc3\xb6iden otsikot opettajan muokattavaksi/ lis\xc3\xa4tt\xc3\xa4v\xc3\xa4ksi\n    fields = (db.kurssityon_nimi.title, db.kurssityon_nimi.kurssi_id)\n    grid1 = SQLFORM.grid(query1, create = False, searchable=False, \n                         fields = fields)\n\n\n    response.view = \'opettaja/opettaja_lisaa_kurssitoita.html\'\n\n    if form_lisaa.process().accepted:\n        #print "LISATAAN !!!"\n        redirect(URL(\'opettaja_lisaa_kurssityo_otsikoita\',\n                     vars=dict(kurssit_ids=kurssit_ids)))\n\n    return dict(grid1 = grid1, form_lisaa=form_lisaa)\n\n@auth.requires_membership(\'opettaja\')\ndef opettaja_kurssityot():\n    """\n    Valittuun/valittuihin kurssiin/kursseihin liittyvat kurssityot\n    opettajan muokattavaksi.\n    """\n    kurssit_ids = string2lista(request.vars.kurssit_ids)\n\n    #haetaan opettajan kursseita h\xc3\xa4nen valitsemiensa kurssien kurssity\xc3\xb6t\n    query2 = kurssi_haut.hae_kurssin_kurssityot(kurssit_ids, db)\n    default_sort_order=[db.kurssityo.kurssi_id]    \n    fields = (db.kurssityo.kurssityon_nimi, db.kurssityo.palautettu, \n              db.kurssityo.korjattu,db.kurssityo.arvosana,\n              db.kurssityo.kurssi_id, )\n    headers = {\'kurssityo.kurssityon_nimi\':   \'Kurssity\xc3\xb6\',\n               \'kurssityo.palautettu\':   \'Palautettu\',\n               \'kurssityo.korjattu\':   \'Korjattu\',\n               \'kurssityo.arvosana\':   \'Arvosana\',\n               \'kurssityo.kurssi_id\':   \'Kurssi\',\n               \'kurssityo.opiskelija_id\':   \'Opiskelija\'}    \n\n    #tehd\xc3\xa4\xc3\xa4n sql hausta lomake\n    grid2 = SQLFORM.grid(query2, create=False,searchable=False,\n                         orderby=default_sort_order,\n                         fields=fields, headers=headers)\n\n    response.view = \'opettaja/opettaja_kurssityot.html\'\n\n    return dict(grid2 = grid2)\n\n\n@auth.requires_membership(\'opettaja\')\ndef opettaja_lisaa_kurssityo_otsikoita():\n    """\n    Opettaja voi lis\xc3\xa4t\xc3\xa4 kursseille uusia kurssit\xc3\xb6iden otsikoita\n    """\n    from gluon.tools import Auth\n\n    kurssit_ids = string2lista(request.vars.kurssit_ids)\n    #query = (db.kurssi.opettaja_id == db.opettaja.id)\n    #kurssit_ids = request.vars.kurssit_ids\n    print "KI",kurssit_ids\n    print "KI2",kurssi_haut.hae_kursseja(kurssit_ids, db)\n    #query = kurssi_haut.hae_kursseja(kurssit_ids, db)\n    #db.kurssityon_nimi.kurssi_id.requires = IS_IN_DB(db(query),"kurssityon_nimi.kurssi_id.title")\n\n    sallittu = kurssi_haut.hae_kurssit(kurssit_ids, db)\n    print "sallittu", sallittu\n    nimet = []\n    for row in sallittu:\n        nimet.append(row.title)\n    db.kurssityon_nimi.kurssi_id.requires = IS_IN_SET(nimet)\n    form = SQLFORM(db.kurssityon_nimi,\n                   fields = [\'title\',\'kurssi_id\'])\n    auth = Auth(db)\n    query = db(db.opettaja.user_id == auth.user_id)\n    sid = query.select(db.opettaja.id)[0].id\n    #sid = opettaja_haut.hae_opettaja(db)\n    form.vars.opettaja_id = sid\n    if form.process().accepted:\n        print "FV", form.vars\n        #redirect(URL(\'opettaja_lisaa_kurssitoita\'))\n        redirect(URL(\'opettaja_alkusivu\'))\n    else:\n        print "NOT accepted"\n    return dict(form=form)\n\nresponse._vars=response._caller(opettaja_lisaa_kurssityo_otsikoita)\n'
p7
sS'snapshot'
p8
(dp9
S'exception'
p10
(dp11
S'__module__'
p12
S"'pysqlite2.dbapi2'"
p13
sS'__getslice__'
p14
S"<method-wrapper '__getslice__' of IntegrityError object>"
p15
sS'__str__'
p16
S"<method-wrapper '__str__' of IntegrityError object>"
p17
sS'__reduce__'
p18
S'<built-in method __reduce__ of IntegrityError object>'
p19
sS'__dict__'
p20
S'{}'
p21
sS'__sizeof__'
p22
S'<built-in method __sizeof__ of IntegrityError object>'
p23
sS'__weakref__'
p24
S'None'
p25
sS'__init__'
p26
S"<method-wrapper '__init__' of IntegrityError object>"
p27
sS'__setattr__'
p28
S"<method-wrapper '__setattr__' of IntegrityError object>"
p29
sS'__reduce_ex__'
p30
S'<built-in method __reduce_ex__ of IntegrityError object>'
p31
sS'__new__'
p32
S'<built-in method __new__ of type object>'
p33
sS'__format__'
p34
S'<built-in method __format__ of IntegrityError object>'
p35
sS'__class__'
p36
S"<class 'pysqlite2.dbapi2.IntegrityError'>"
p37
sS'__doc__'
p38
S'None'
p39
sS'__getitem__'
p40
S"<method-wrapper '__getitem__' of IntegrityError object>"
p41
sS'__setstate__'
p42
S'<built-in method __setstate__ of IntegrityError object>'
p43
sS'__getattribute__'
p44
S"<method-wrapper '__getattribute__' of IntegrityError object>"
p45
sS'args'
p46
S"('foreign key constraint failed',)"
p47
sS'__subclasshook__'
p48
S'<built-in method __subclasshook__ of type object>'
p49
sS'__unicode__'
p50
S'<built-in method __unicode__ of IntegrityError object>'
p51
sS'__delattr__'
p52
S"<method-wrapper '__delattr__' of IntegrityError object>"
p53
sS'__repr__'
p54
S"<method-wrapper '__repr__' of IntegrityError object>"
p55
sS'__hash__'
p56
S"<method-wrapper '__hash__' of IntegrityError object>"
p57
ssS'evalue'
p58
S'foreign key constraint failed'
p59
sS'request'
p60
cgluon.html
XML_unpickle
p61
(S's(d\x00\x00<div><table><tr><td style="font-weight:bold;vertical-align:top;">ajax</td><td style="vertical-align:top;">:</td><td><div>False</div></td></tr><tr><td style="font-weight:bold;vertical-align:top;">application</td><td style="vertical-align:top;">:</td><td><div>kurssihallinta</div></td></tr><tr><td style="font-weight:bold;vertical-align:top;">args</td><td style="vertical-align:top;">:</td><td><div><table></table></div></td></tr><tr><td style="font-weight:bold;vertical-align:top;">cid</td><td style="vertical-align:top;">:</td><td><div>None</div></td></tr><tr><td style="font-weight:bold;vertical-align:top;">client</td><td style="vertical-align:top;">:</td><td><div>127.0.0.1</div></td></tr><tr><td style="font-weight:bold;vertical-align:top;">controller</td><td style="vertical-align:top;">:</td><td><div>opettaja</div></td></tr><tr><td style="font-weight:bold;vertical-align:top;">cookies</td><td style="vertical-align:top;">:</td><td><div><table><tr><td style="font-weight:bold;vertical-align:top;">session_id_admin</td><td style="vertical-align:top;">:</td><td><div>127.0.0.1-5f1a4daf-765e-4f77-937e-f2e2ccc61d81<table><tr><td style="font-weight:bold;vertical-align:top;">comment</td><td style="vertical-align:top;">:</td><td><div></div></td></tr><tr><td style="font-weight:bold;vertical-align:top;">domain</td><td style="vertical-align:top;">:</td><td><div></div></td></tr><tr><td style="font-weight:bold;vertical-align:top;">expires</td><td style="vertical-align:top;">:</td><td><div></div></td></tr><tr><td style="font-weight:bold;vertical-align:top;">httponly</td><td style="vertical-align:top;">:</td><td><div></div></td></tr><tr><td style="font-weight:bold;vertical-align:top;">max-age</td><td style="vertical-align:top;">:</td><td><div></div></td></tr><tr><td style="font-weight:bold;vertical-align:top;">path</td><td style="vertical-align:top;">:</td><td><div></div></td></tr><tr><td style="font-weight:bold;vertical-align:top;">secure</td><td style="vertical-align:top;">:</td><td><div></div></td></tr><tr><td style="font-weight:bold;vertical-align:top;">version</td><td style="vertical-align:top;">:</td><td><div></div></td></tr></table></div></td></tr><tr><td style="font-weight:bold;vertical-align:top;">session_id_kurssihallinta</td><td style="vertical-align:top;">:</td><td><div>127.0.0.1-ffb5ca42-3b26-439d-80d0-e1cf45026abc<table><tr><td style="font-weight:bold;vertical-align:top;">comment</td><td style="vertical-align:top;">:</td><td><div></div></td></tr><tr><td style="font-weight:bold;vertical-align:top;">domain</td><td style="vertical-align:top;">:</td><td><div></div></td></tr><tr><td style="font-weight:bold;vertical-align:top;">expires</td><td style="vertical-align:top;">:</td><td><div></div></td></tr><tr><td style="font-weight:bold;vertical-align:top;">httponly</td><td style="vertical-align:top;">:</td><td><div></div></td></tr><tr><td style="font-weight:bold;vertical-align:top;">max-age</td><td style="vertical-align:top;">:</td><td><div></div></td></tr><tr><td style="font-weight:bold;vertical-align:top;">path</td><td style="vertical-align:top;">:</td><td><div></div></td></tr><tr><td style="font-weight:bold;vertical-align:top;">secure</td><td style="vertical-align:top;">:</td><td><div></div></td></tr><tr><td style="font-weight:bold;vertical-align:top;">version</td><td style="vertical-align:top;">:</td><td><div></div></td></tr></table></div></td></tr><tr><td style="font-weight:bold;vertical-align:top;">session_id_welcome</td><td style="vertical-align:top;">:</td><td><div>127.0.0.1-3bb96e44-84fe-4cd7-8c04-e05d45fd9563<table><tr><td style="font-weight:bold;vertical-align:top;">comment</td><td style="vertical-align:top;">:</td><td><div></div></td></tr><tr><td style="font-weight:bold;vertical-align:top;">domain</td><td style="vertical-align:top;">:</td><td><div></div></td></tr><tr><td style="font-weight:bold;vertical-align:top;">expires</td><td style="vertical-align:top;">:</td><td><div></div></td></tr><tr><td style="font-weight:bold;vertical-align:top;">httponly</td><td style="vertical-align:top;">:</td><td><div></div></td></tr><tr><td style="font-weight:bold;vertical-align:top;">max-age</td><td style="vertical-align:top;">:</td><td><div></div></td></tr><tr><td style="font-weight:bold;vertical-align:top;">path</td><td style="vertical-align:top;">:</td><td><div></div></td></tr><tr><td style="font-weight:bold;vertical-align:top;">secure</td><td style="vertical-align:top;">:</td><td><div></div></td></tr><tr><td style="font-weight:bold;vertical-align:top;">version</td><td style="vertical-align:top;">:</td><td><div></div></td></tr></table></div></td></tr></table></div></td></tr><tr><td style="font-weight:bold;vertical-align:top;">env</td><td style="vertical-align:top;">:</td><td><div><table><tr><td style="font-weight:bold;vertical-align:top;">CONTENT_LENGTH</td><td style="vertical-align:top;">:</td><td><div>493</div></td></tr><tr><td style="font-weight:bold;vertical-align:top;">CONTENT_TYPE</td><td style="vertical-align:top;">:</td><td><div>multipart/form-data; boundary=----WebKitFormBoundaryLHhJA8MkGRejjITX</div></td></tr><tr><td style="font-weight:bold;vertical-align:top;">HTTP_ACCEPT</td><td style="vertical-align:top;">:</td><td><div>text/html,application/xhtml+xml,application/xml;q=0.9,*/*;q=0.8</div></td></tr><tr><td style="font-weight:bold;vertical-align:top;">HTTP_ACCEPT_CHARSET</td><td style="vertical-align:top;">:</td><td><div>ISO-8859-1,utf-8;q=0.7,*;q=0.3</div></td></tr><tr><td style="font-weight:bold;vertical-align:top;">HTTP_ACCEPT_ENCODING</td><td style="vertical-align:top;">:</td><td><div>gzip,deflate,sdch</div></td></tr><tr><td style="font-weight:bold;vertical-align:top;">HTTP_ACCEPT_LANGUAGE</td><td style="vertical-align:top;">:</td><td><div>en-US,en;q=0.8</div></td></tr><tr><td style="font-weight:bold;vertical-align:top;">HTTP_CACHE_CONTROL</td><td style="vertical-align:top;">:</td><td><div>max-age=0</div></td></tr><tr><td style="font-weight:bold;vertical-align:top;">HTTP_CONNECTION</td><td style="vertical-align:top;">:</td><td><div>keep-alive</div></td></tr><tr><td style="font-weight:bold;vertical-align:top;">HTTP_CONTENT_LENGTH</td><td style="vertical-align:top;">:</td><td><div>493</div></td></tr><tr><td style="font-weight:bold;vertical-align:top;">HTTP_CONTENT_TYPE</td><td style="vertical-align:top;">:</td><td><div>multipart/form-data; boundary=----WebKitFormBoundaryLHhJA8MkGRejjITX</div></td></tr><tr><td style="font-weight:bold;vertical-align:top;">HTTP_COOKIE</td><td style="vertical-align:top;">:</td><td><div>session_id_welcome=127.0.0.1-3bb96e44-84fe-4cd7-8c04-e05d45fd9563; session_id_admin=127.0.0.1-5f1a4daf-765e-4f77-937e-f2e2ccc61d81; session_id_kurssihallinta=127.0.0.1-ffb5ca42-3b26-439d-80d0-e1cf45026abc</div></td></tr><tr><td style="font-weight:bold;vertical-align:top;">HTTP_HOST</td><td style="vertical-align:top;">:</td><td><div>127.0.0.1:8000</div></td></tr><tr><td style="font-weight:bold;vertical-align:top;">HTTP_ORIGIN</td><td style="vertical-align:top;">:</td><td><div>http://127.0.0.1:8000</div></td></tr><tr><td style="font-weight:bold;vertical-align:top;">HTTP_REFERER</td><td style="vertical-align:top;">:</td><td><div>http://127.0.0.1:8000/kurssihallinta/opettaja/opettaja_lisaa_kurssityo_otsikoita?kurssit_ids=6</div></td></tr><tr><td style="font-weight:bold;vertical-align:top;">HTTP_USER_AGENT</td><td style="vertical-align:top;">:</td><td><div>Mozilla/5.0 (X11; Linux i686) AppleWebKit/537.31 (KHTML, like Gecko) Chrome/26.0.1410.63 Safari/537.31</div></td></tr><tr><td style="font-weight:bold;vertical-align:top;">PATH_INFO</td><td style="vertical-align:top;">:</td><td><div>/kurssihallinta/opettaja/opettaja_lisaa_kurssityo_otsikoita</div></td></tr><tr><td style="font-weight:bold;vertical-align:top;">QUERY_STRING</td><td style="vertical-align:top;">:</td><td><div>kurssit_ids=6</div></td></tr><tr><td style="font-weight:bold;vertical-align:top;">REMOTE_ADDR</td><td style="vertical-align:top;">:</td><td><div>127.0.0.1</div></td></tr><tr><td style="font-weight:bold;vertical-align:top;">REMOTE_PORT</td><td style="vertical-align:top;">:</td><td><div>49490</div></td></tr><tr><td style="font-weight:bold;vertical-align:top;">REQUEST_METHOD</td><td style="vertical-align:top;">:</td><td><div>POST</div></td></tr><tr><td style="font-weight:bold;vertical-align:top;">SCRIPT_NAME</td><td style="vertical-align:top;">:</td><td><div></div></td></tr><tr><td style="font-weight:bold;vertical-align:top;">SERVER_NAME</td><td style="vertical-align:top;">:</td><td><div>mka3830TG</div></td></tr><tr><td style="font-weight:bold;vertical-align:top;">SERVER_PORT</td><td style="vertical-align:top;">:</td><td><div>8000</div></td></tr><tr><td style="font-weight:bold;vertical-align:top;">SERVER_PROTOCOL</td><td style="vertical-align:top;">:</td><td><div>HTTP/1.1</div></td></tr><tr><td style="font-weight:bold;vertical-align:top;">SERVER_SOFTWARE</td><td style="vertical-align:top;">:</td><td><div>Rocket 1.2.6</div></td></tr><tr><td style="font-weight:bold;vertical-align:top;">app_folders</td><td style="vertical-align:top;">:</td><td><div>set([&#x27;/home/mka/web2py/applications/welcome/&#x27;, &#x27;/home/mka/web2py/applications/admin/&#x27;, &#x27;/home/mka/web2py/applications/kurssihallinta/&#x27;])</div></td></tr><tr><td style="font-weight:bold;vertical-align:top;">applications_parent</td><td style="vertical-align:top;">:</td><td><div>/home/mka/web2py</div></td></tr><tr><td style="font-weight:bold;vertical-align:top;">cmd_args</td><td style="vertical-align:top;">:</td><td><div><table></table></div></td></tr><tr><td style="font-weight:bold;vertical-align:top;">cmd_options</td><td style="vertical-align:top;">:</td><td><div>&lt;Values at 0x92079cc: {&#x27;verbose&#x27;: False, &#x27;ip&#x27;: &#x27;127.0.0.1&#x27;, &#x27;debuglevel&#x27;: 30, &#x27;with_scheduler&#x27;: False, &#x27;ips&#x27;: [&#x27;::1&#x27;], &#x27;shutdown_timeout&#x27;: 5, &#x27;taskbar&#x27;: False, &#x27;with_coverage&#x27;: False, &#x27;port&#x27;: 8000, &#x27;maxthreads&#x27;: None, &#x27;softcron&#x27;: False, &#x27;server_name&#x27;: &#x27;mka3830TG&#x27;, &#x27;bpython&#x27;: False, &#x27;nogui&#x27;: False, &#x27;pid_filename&#x27;: &#x27;httpserver.pid&#x27;, &#x27;extcron&#x27;: False, &#x27;runcron&#x27;: False, &#x27;run_system_tests&#x27;: False, &#x27;test&#x27;: None, &#x27;folder&#x27;: &#x27;/home/mka/web2py&#x27;, &#x27;config&#x27;: &#x27;&#x27;, &#x27;minthreads&#x27;: None, &#x27;shell&#x27;: None, &#x27;run&#x27;: &#x27;&#x27;, &#x27;log_filename&#x27;: &#x27;httpserver.log&#x27;, &#x27;profiler_dir&#x27;: None, &#x27;args&#x27;: [&#x27;&#x27;], &#x27;socket_timeout&#x27;: 5, &#x27;ssl_ca_certificate&#x27;: None, &#x27;scheduler&#x27;: None, &#x27;interfaces&#x27;: None, &#x27;ssl_private_key&#x27;: &#x27;&#x27;, &#x27;scheduler_groups&#x27;: None, &#x27;password&#x27;: &#x27;&lt;ask&gt;&#x27;, &#x27;request_queue_size&#x27;: 5, &#x27;ssl_certificate&#x27;: &#x27;&#x27;, &#x27;cronjob&#x27;: False, &#x27;numthreads&#x27;: None, &#x27;quiet&#x27;: False, &#x27;import_models&#x27;: False, &#x27;timeout&#x27;: 10, &#x27;plain&#x27;: False, &#x27;nobanner&#x27;: False}&gt;</div></td></tr><tr><td style="font-weight:bold;vertical-align:top;">content_length</td><td style="vertical-align:top;">:</td><td><div>493</div></td></tr><tr><td style="font-weight:bold;vertical-align:top;">content_type</td><td style="vertical-align:top;">:</td><td><div>multipart/form-data; boundary=----WebKitFormBoundaryLHhJA8MkGRejjITX</div></td></tr><tr><td style="font-weight:bold;vertical-align:top;">db_sessions</td><td style="vertical-align:top;">:</td><td><div>set([])</div></td></tr><tr><td style="font-weight:bold;vertical-align:top;">debugging</td><td style="vertical-align:top;">:</td><td><div>True</div></td></tr><tr><td style="font-weight:bold;vertical-align:top;">gluon_parent</td><td style="vertical-align:top;">:</td><td><div>/home/mka/web2py</div></td></tr><tr><td style="font-weight:bold;vertical-align:top;">http_accept</td><td style="vertical-align:top;">:</td><td><div>text/html,application/xhtml+xml,application/xml;q=0.9,*/*;q=0.8</div></td></tr><tr><td style="font-weight:bold;vertical-align:top;">http_accept_charset</td><td style="vertical-align:top;">:</td><td><div>ISO-8859-1,utf-8;q=0.7,*;q=0.3</div></td></tr><tr><td style="font-weight:bold;vertical-align:top;">http_accept_encoding</td><td style="vertical-align:top;">:</td><td><div>gzip,deflate,sdch</div></td></tr><tr><td style="font-weight:bold;vertical-align:top;">http_accept_language</td><td style="vertical-align:top;">:</td><td><div>en-US,en;q=0.8</div></td></tr><tr><td style="font-weight:bold;vertical-align:top;">http_cache_control</td><td style="vertical-align:top;">:</td><td><div>max-age=0</div></td></tr><tr><td style="font-weight:bold;vertical-align:top;">http_connection</td><td style="vertical-align:top;">:</td><td><div>keep-alive</div></td></tr><tr><td style="font-weight:bold;vertical-align:top;">http_content_length</td><td style="vertical-align:top;">:</td><td><div>493</div></td></tr><tr><td style="font-weight:bold;vertical-align:top;">http_content_type</td><td style="vertical-align:top;">:</td><td><div>multipart/form-data; boundary=----WebKitFormBoundaryLHhJA8MkGRejjITX</div></td></tr><tr><td style="font-weight:bold;vertical-align:top;">http_cookie</td><td style="vertical-align:top;">:</td><td><div>session_id_welcome=127.0.0.1-3bb96e44-84fe-4cd7-8c04-e05d45fd9563; session_id_admin=127.0.0.1-5f1a4daf-765e-4f77-937e-f2e2ccc61d81; session_id_kurssihallinta=127.0.0.1-ffb5ca42-3b26-439d-80d0-e1cf45026abc</div></td></tr><tr><td style="font-weight:bold;vertical-align:top;">http_host</td><td style="vertical-align:top;">:</td><td><div>127.0.0.1:8000</div></td></tr><tr><td style="font-weight:bold;vertical-align:top;">http_origin</td><td style="vertical-align:top;">:</td><td><div>http://127.0.0.1:8000</div></td></tr><tr><td style="font-weight:bold;vertical-align:top;">http_referer</td><td style="vertical-align:top;">:</td><td><div>http://127.0.0.1:8000/kurssihallinta/opettaja/opettaja_lisaa_kurssityo_otsikoita?kurssit_ids=6</div></td></tr><tr><td style="font-weight:bold;vertical-align:top;">http_user_agent</td><td style="vertical-align:top;">:</td><td><div>Mozilla/5.0 (X11; Linux i686) AppleWebKit/537.31 (KHTML, like Gecko) Chrome/26.0.1410.63 Safari/537.31</div></td></tr><tr><td style="font-weight:bold;vertical-align:top;">is_jython</td><td style="vertical-align:top;">:</td><td><div>False</div></td></tr><tr><td style="font-weight:bold;vertical-align:top;">is_pypy</td><td style="vertical-align:top;">:</td><td><div>False</div></td></tr><tr><td style="font-weight:bold;vertical-align:top;">is_source</td><td style="vertical-align:top;">:</td><td><div>True</div></td></tr><tr><td style="font-weight:bold;vertical-align:top;">local_hosts</td><td style="vertical-align:top;">:</td><td><div><table><tr><td><div>::ffff:127.0.0.1</div></td></tr><tr><td><div>::1</div></td></tr><tr><td><div>mka3830TG</div></td></tr><tr><td><div>localhost6.localdomain6</div></td></tr><tr><td><div>127.0.1.1</div></td></tr><tr><td><div>127.0.0.1</div></td></tr></table></div></td></tr><tr><td style="font-weight:bold;vertical-align:top;">path_info</td><td style="vertical-align:top;">:</td><td><div>/kurssihallinta/opettaja/opettaja_lisaa_kurssityo_otsikoita</div></td></tr><tr><td style="font-weight:bold;vertical-align:top;">query_string</td><td style="vertical-align:top;">:</td><td><div>kurssit_ids=6</div></td></tr><tr><td style="font-weight:bold;vertical-align:top;">remote_addr</td><td style="vertical-align:top;">:</td><td><div>127.0.0.1</div></td></tr><tr><td style="font-weight:bold;vertical-align:top;">remote_port</td><td style="vertical-align:top;">:</td><td><div>49490</div></td></tr><tr><td style="font-weight:bold;vertical-align:top;">request_method</td><td style="vertical-align:top;">:</td><td><div>POST</div></td></tr><tr><td style="font-weight:bold;vertical-align:top;">request_uri</td><td style="vertical-align:top;">:</td><td><div>/kurssihallinta/opettaja/opettaja_lisaa_kurssityo_otsikoita?kurssit_ids=6</div></td></tr><tr><td style="font-weight:bold;vertical-align:top;">script_name</td><td style="vertical-align:top;">:</td><td><div></div></td></tr><tr><td style="font-weight:bold;vertical-align:top;">server_name</td><td style="vertical-align:top;">:</td><td><div>mka3830TG</div></td></tr><tr><td style="font-weight:bold;vertical-align:top;">server_port</td><td style="vertical-align:top;">:</td><td><div>8000</div></td></tr><tr><td style="font-weight:bold;vertical-align:top;">server_protocol</td><td style="vertical-align:top;">:</td><td><div>HTTP/1.1</div></td></tr><tr><td style="font-weight:bold;vertical-align:top;">server_software</td><td style="vertical-align:top;">:</td><td><div>Rocket 1.2.6</div></td></tr><tr><td style="font-weight:bold;vertical-align:top;">web2py_path</td><td style="vertical-align:top;">:</td><td><div>/home/mka/web2py</div></td></tr><tr><td style="font-weight:bold;vertical-align:top;">web2py_version</td><td style="vertical-align:top;">:</td><td><div>2.9.5-stable+timestamp.2014.03.16.02.35.39</div></td></tr><tr><td style="font-weight:bold;vertical-align:top;">wsgi.errors</td><td style="vertical-align:top;">:</td><td><div>&lt;open file &#x27;&lt;stderr&gt;&#x27;, mode &#x27;w&#x27; at 0xb72d90d0&gt;</div></td></tr><tr><td style="font-weight:bold;vertical-align:top;">wsgi.file_wrapper</td><td style="vertical-align:top;">:</td><td><div>&lt;class wsgiref.util.FileWrapper at 0x91d411c&gt;</div></td></tr><tr><td style="font-weight:bold;vertical-align:top;">wsgi.input</td><td style="vertical-align:top;">:</td><td><div>&lt;socket._fileobject object at 0xa7630d6c&gt;</div></td></tr><tr><td style="font-weight:bold;vertical-align:top;">wsgi.multiprocess</td><td style="vertical-align:top;">:</td><td><div>False</div></td></tr><tr><td style="font-weight:bold;vertical-align:top;">wsgi.multithread</td><td style="vertical-align:top;">:</td><td><div>True</div></td></tr><tr><td style="font-weight:bold;vertical-align:top;">wsgi.run_once</td><td style="vertical-align:top;">:</td><td><div>False</div></td></tr><tr><td style="font-weight:bold;vertical-align:top;">wsgi.url_scheme</td><td style="vertical-align:top;">:</td><td><div>http</div></td></tr><tr><td style="font-weight:bold;vertical-align:top;">wsgi.version</td><td style="vertical-align:top;">:</td><td><div><table><tr><td><div>1</div></td></tr><tr><td><div>0</div></td></tr></table></div></td></tr><tr><td style="font-weight:bold;vertical-align:top;">wsgi_errors</td><td style="vertical-align:top;">:</td><td><div>&lt;open file &#x27;&lt;stderr&gt;&#x27;, mode &#x27;w&#x27; at 0xb72d90d0&gt;</div></td></tr><tr><td style="font-weight:bold;vertical-align:top;">wsgi_file_wrapper</td><td style="vertical-align:top;">:</td><td><div>&lt;class wsgiref.util.FileWrapper at 0x91d411c&gt;</div></td></tr><tr><td style="font-weight:bold;vertical-align:top;">wsgi_input</td><td style="vertical-align:top;">:</td><td><div>&lt;socket._fileobject object at 0xa7630d6c&gt;</div></td></tr><tr><td style="font-weight:bold;vertical-align:top;">wsgi_multiprocess</td><td style="vertical-align:top;">:</td><td><div>False</div></td></tr><tr><td style="font-weight:bold;vertical-align:top;">wsgi_multithread</td><td style="vertical-align:top;">:</td><td><div>True</div></td></tr><tr><td style="font-weight:bold;vertical-align:top;">wsgi_run_once</td><td style="vertical-align:top;">:</td><td><div>False</div></td></tr><tr><td style="font-weight:bold;vertical-align:top;">wsgi_url_scheme</td><td style="vertical-align:top;">:</td><td><div>http</div></td></tr><tr><td style="font-weight:bold;vertical-align:top;">wsgi_version</td><td style="vertical-align:top;">:</td><td><div><table><tr><td><div>1</div></td></tr><tr><td><div>0</div></td></tr></table></div></td></tr></table></div></td></tr><tr><td style="font-weight:bold;vertical-align:top;">extension</td><td style="vertical-align:top;">:</td><td><div>html</div></td></tr><tr><td style="font-weight:bold;vertical-align:top;">folder</td><td style="vertical-align:top;">:</td><td><div>/home/mka/web2py/applications/kurssihallinta/</div></td></tr><tr><td style="font-weight:bold;vertical-align:top;">function</td><td style="vertical-align:top;">:</td><td><div>opettaja_lisaa_kurssityo_otsikoita</div></td></tr><tr><td style="font-weight:bold;vertical-align:top;">global_settings</td><td style="vertical-align:top;">:</td><td><div><table><tr><td style="font-weight:bold;vertical-align:top;">app_folders</td><td style="vertical-align:top;">:</td><td><div>set([&#x27;/home/mka/web2py/applications/welcome/&#x27;, &#x27;/home/mka/web2py/applications/admin/&#x27;, &#x27;/home/mka/web2py/applications/kurssihallinta/&#x27;])</div></td></tr><tr><td style="font-weight:bold;vertical-align:top;">applications_parent</td><td style="vertical-align:top;">:</td><td><div>/home/mka/web2py</div></td></tr><tr><td style="font-weight:bold;vertical-align:top;">cmd_args</td><td style="vertical-align:top;">:</td><td><div><table></table></div></td></tr><tr><td style="font-weight:bold;vertical-align:top;">cmd_options</td><td style="vertical-align:top;">:</td><td><div>&lt;Values at 0x92079cc: {&#x27;verbose&#x27;: False, &#x27;ip&#x27;: &#x27;127.0.0.1&#x27;, &#x27;debuglevel&#x27;: 30, &#x27;with_scheduler&#x27;: False, &#x27;ips&#x27;: [&#x27;::1&#x27;], &#x27;shutdown_timeout&#x27;: 5, &#x27;taskbar&#x27;: False, &#x27;with_coverage&#x27;: False, &#x27;port&#x27;: 8000, &#x27;maxthreads&#x27;: None, &#x27;softcron&#x27;: False, &#x27;server_name&#x27;: &#x27;mka3830TG&#x27;, &#x27;bpython&#x27;: False, &#x27;nogui&#x27;: False, &#x27;pid_filename&#x27;: &#x27;httpserver.pid&#x27;, &#x27;extcron&#x27;: False, &#x27;runcron&#x27;: False, &#x27;run_system_tests&#x27;: False, &#x27;test&#x27;: None, &#x27;folder&#x27;: &#x27;/home/mka/web2py&#x27;, &#x27;config&#x27;: &#x27;&#x27;, &#x27;minthreads&#x27;: None, &#x27;shell&#x27;: None, &#x27;run&#x27;: &#x27;&#x27;, &#x27;log_filename&#x27;: &#x27;httpserver.log&#x27;, &#x27;profiler_dir&#x27;: None, &#x27;args&#x27;: [&#x27;&#x27;], &#x27;socket_timeout&#x27;: 5, &#x27;ssl_ca_certificate&#x27;: None, &#x27;scheduler&#x27;: None, &#x27;interfaces&#x27;: None, &#x27;ssl_private_key&#x27;: &#x27;&#x27;, &#x27;scheduler_groups&#x27;: None, &#x27;password&#x27;: &#x27;&lt;ask&gt;&#x27;, &#x27;request_queue_size&#x27;: 5, &#x27;ssl_certificate&#x27;: &#x27;&#x27;, &#x27;cronjob&#x27;: False, &#x27;numthreads&#x27;: None, &#x27;quiet&#x27;: False, &#x27;import_models&#x27;: False, &#x27;timeout&#x27;: 10, &#x27;plain&#x27;: False, &#x27;nobanner&#x27;: False}&gt;</div></td></tr><tr><td style="font-weight:bold;vertical-align:top;">db_sessions</td><td style="vertical-align:top;">:</td><td><div>set([])</div></td></tr><tr><td style="font-weight:bold;vertical-align:top;">debugging</td><td style="vertical-align:top;">:</td><td><div>True</div></td></tr><tr><td style="font-weight:bold;vertical-align:top;">gluon_parent</td><td style="vertical-align:top;">:</td><td><div>/home/mka/web2py</div></td></tr><tr><td style="font-weight:bold;vertical-align:top;">is_jython</td><td style="vertical-align:top;">:</td><td><div>False</div></td></tr><tr><td style="font-weight:bold;vertical-align:top;">is_pypy</td><td style="vertical-align:top;">:</td><td><div>False</div></td></tr><tr><td style="font-weight:bold;vertical-align:top;">is_source</td><td style="vertical-align:top;">:</td><td><div>True</div></td></tr><tr><td style="font-weight:bold;vertical-align:top;">local_hosts</td><td style="vertical-align:top;">:</td><td><div><table><tr><td><div>::ffff:127.0.0.1</div></td></tr><tr><td><div>::1</div></td></tr><tr><td><div>mka3830TG</div></td></tr><tr><td><div>localhost6.localdomain6</div></td></tr><tr><td><div>127.0.1.1</div></td></tr><tr><td><div>127.0.0.1</div></td></tr></table></div></td></tr><tr><td style="font-weight:bold;vertical-align:top;">web2py_version</td><td style="vertical-align:top;">:</td><td><div>2.9.5-stable+timestamp.2014.03.16.02.35.39</div></td></tr></table></div></td></tr><tr><td style="font-weight:bold;vertical-align:top;">is_https</td><td style="vertical-align:top;">:</td><td><div>False</div></td></tr><tr><td style="font-weight:bold;vertical-align:top;">is_local</td><td style="vertical-align:top;">:</td><td><div>True</div></td></tr><tr><td style="font-weight:bold;vertical-align:top;">is_restful</td><td style="vertical-align:top;">:</td><td><div>False</div></td></tr><tr><td style="font-weight:bold;vertical-align:top;">now</td><td style="vertical-align:top;">:</td><td><div>datetime.datetime(2014, 6, 22, 22, 20, 19, 307012)</div></td></tr><tr><td style="font-weight:bold;vertical-align:top;">raw_args</td><td style="vertical-align:top;">:</td><td><div></div></td></tr><tr><td style="font-weight:bold;vertical-align:top;">raw_extension</td><td style="vertical-align:top;">:</td><td><div>None</div></td></tr><tr><td style="font-weight:bold;vertical-align:top;">url</td><td style="vertical-align:top;">:</td><td><div>/kurssihallinta/opettaja/opettaja_lisaa_kurssityo_otsikoita</div></td></tr><tr><td style="font-weight:bold;vertical-align:top;">utcnow</td><td style="vertical-align:top;">:</td><td><div>datetime.datetime(2014, 6, 22, 19, 20, 19, 307033)</div></td></tr><tr><td style="font-weight:bold;vertical-align:top;">uuid</td><td style="vertical-align:top;">:</td><td><div>kurssihallinta/127.0.0.1.2014-06-22.22-20-19.785d7517-308e-4b96-afd9-438e9e445360</div></td></tr><tr><td style="font-weight:bold;vertical-align:top;">wsgi</td><td style="vertical-align:top;">:</td><td><div>&lt;gluon.main.LazyWSGI object at 0xa6c6958c&gt;</div></td></tr></table></div>'
tRp62
sS'frames'
p63
(lp64
(dp65
S'file'
p66
S'/home/mka/web2py/gluon/restricted.py'
p67
sS'dump'
p68
(dp69
S'environment'
p70
S"{'A': <class 'gluon.html.A'>, 'ANY_OF': <class 'gluon.validators.ANY_OF'>, 'Auth': <class 'gluon.tools.Auth'>, 'B': <class 'gluon.html.B'>, 'BEAUTIFY': <class 'gluon.html.BEAUTIFY'>, 'BODY': <class 'gluon.html.BODY'>, 'BR': <class 'gluon.html.BR'>, 'BUTTON': <class 'gluon.html.BUTTON'>, 'CAT': <class 'gluon.html.CAT'>, 'CENTER': <class 'gluon.html.CENTER'>, ...}"
p71
sS'ccode'
p72
S'<code object <module> at 0xa79712a8, file "/home.../kurssihallinta/controllers/opettaja.py", line 3>'
p73
ssS'lnum'
p74
I220
sS'lines'
p75
(dp76
I224
S'        # do not encapsulate (obfuscate) the original RestrictedError'
p77
sI215
S'    try:'
p78
sI216
S'        if isinstance(code, types.CodeType):'
p79
sI217
S'            ccode = code'
p80
sI218
S'        else:'
p81
sI219
S'            ccode = compile2(code, layer)'
p82
sI220
S'        exec ccode in environment'
p83
sI221
S'    except HTTP:'
p84
sI222
S'        raise'
p85
sI223
S'    except RestrictedError:'
p86
ssS'call'
p87
S"(code='# -*- coding: utf-8 -*-\\n#reload modules\\nfrom glu...onse._caller(opettaja_lisaa_kurssityo_otsikoita)\\n', environment={'A': <class 'gluon.html.A'>, 'ANY_OF': <class 'gluon.validators.ANY_OF'>, 'Auth': <class 'gluon.tools.Auth'>, 'B': <class 'gluon.html.B'>, 'BEAUTIFY': <class 'gluon.html.BEAUTIFY'>, 'BODY': <class 'gluon.html.BODY'>, 'BR': <class 'gluon.html.BR'>, 'BUTTON': <class 'gluon.html.BUTTON'>, 'CAT': <class 'gluon.html.CAT'>, 'CENTER': <class 'gluon.html.CENTER'>, ...}, layer='/home/mka/web2py/applications/kurssihallinta/controllers/opettaja.py')"
p88
sS'func'
p89
S'restricted'
p90
sa(dp91
g66
S'/home/mka/web2py/applications/kurssihallinta/controllers/opettaja.py'
p92
sg68
(dp93
sg74
I202
sg75
(dp94
I192
S'    #sid = opettaja_haut.hae_opettaja(db)'
p95
sI193
S'    form.vars.opettaja_id = sid'
p96
sI194
S'    if form.process().accepted:'
p97
sI195
S'        print "FV", form.vars'
p98
sI196
S"        #redirect(URL('opettaja_lisaa_kurssitoita'))"
p99
sI197
S"        redirect(URL('opettaja_alkusivu'))"
p100
sI198
S'    else:'
p101
sI199
S'        print "NOT accepted"'
p102
sI200
S'    return dict(form=form)'
p103
sI191
S'    sid = query.select(db.opettaja.id)[0].id'
p104
ssg87
S'()'
p105
sg89
S'<module>'
p106
sa(dp107
g66
S'/home/mka/web2py/gluon/globals.py'
p108
sg68
(dp109
S'self'
p110
S'undefined'
p111
sS'f'
S'<function opettaja_lisaa_kurssityo_otsikoita>'
p112
ssg74
I385
sg75
(dp113
I384
S'        self._vars = None'
p114
sI385
S'        self._caller = lambda f: f()'
p115
sI386
S'        self._view_environment = None'
p116
sI387
S'        self._custom_commit = None'
p117
sI388
S'        self._custom_rollback = None'
p118
sI389
S''
sI380
S'        self.menu = []             # used by the default view layout'
p119
sI381
S'        self.files = []            # used by web2py_ajax.html'
p120
sI382
S'        self.generic_patterns = []  # patterns to allow generic views'
p121
sI383
S"        self.delimiters = ('{{', '}}')"
p122
ssg87
S'(f=<function opettaja_lisaa_kurssityo_otsikoita>)'
p123
sg89
S'<lambda>'
p124
sa(dp125
g66
S'/home/mka/web2py/gluon/tools.py'
p126
sg68
(dp127
S'action'
p128
S'<function opettaja_lisaa_kurssityo_otsikoita>'
p129
sS'a'
S'()'
p130
sS'b'
g21
ssg74
I3287
sg75
(dp131
I3282
S'                    flag = condition'
p132
sI3283
S'                if not flag:'
p133
sI3284
S'                    current.session.flash = self.messages.access_denied'
p134
sI3285
S'                    return call_or_redirect('
p135
sI3286
S'                        self.settings.on_failed_authorization)'
p136
sI3287
S'                return action(*a, **b)'
p137
sI3288
S'            f.__doc__ = action.__doc__'
p138
sI3289
S'            f.__name__ = action.__name__'
p139
sI3290
S'            f.__dict__.update(action.__dict__)'
p140
sI3291
S'            return f'
p141
ssg87
S'(*a=(), **b={})'
p142
sg89
S'f'
sa(dp143
g66
S'/home/mka/web2py/applications/kurssihallinta/controllers/opettaja.py'
p144
sg68
(dp145
S'form.process'
p146
S'<bound method SQLFORM.process of <gluon.sqlhtml.SQLFORM object>>'
p147
sS').accepted'
p148
g111
sS'form'
p149
S'<gluon.sqlhtml.SQLFORM object>'
p150
ssg74
I194
sg75
(dp151
I192
S'    #sid = opettaja_haut.hae_opettaja(db)'
p152
sI193
S'    form.vars.opettaja_id = sid'
p153
sI194
S'    if form.process().accepted:'
p154
sI195
S'        print "FV", form.vars'
p155
sI196
S"        #redirect(URL('opettaja_lisaa_kurssitoita'))"
p156
sI197
S"        redirect(URL('opettaja_alkusivu'))"
p157
sI198
S'    else:'
p158
sI189
S'    auth = Auth(db)'
p159
sI190
S'    query = db(db.opettaja.user_id == auth.user_id)'
p160
sI191
S'    sid = query.select(db.opettaja.id)[0].id'
p161
ssg87
S'()'
p162
sg89
S'opettaja_lisaa_kurssityo_otsikoita'
p163
sa(dp164
g66
S'/home/mka/web2py/gluon/html.py'
p165
sg68
(dp166
S'self'
p167
S'<gluon.sqlhtml.SQLFORM object>'
p168
sS'self.validate'
p169
S'<bound method SQLFORM.validate of <gluon.sqlhtml.SQLFORM object>>'
p170
sS'kwargs'
p171
S"{'dbio': True}"
p172
ssg74
I2282
sg75
(dp173
I2277
S''
sI2278
S''
sI2279
S'        """'
p174
sI2280
S"        kwargs['dbio'] = kwargs.get('dbio', True)"
p175
sI2281
S'                                    # necessary for SQLHTML forms'
p176
sI2282
S'        self.validate(**kwargs)'
p177
sI2283
S'        return self'
p178
sI2284
S''
sI2285
S'    REDIRECT_JS = "window.location=\'%s\';return false"'
p179
sI2286
S''
ssg87
S"(self=<gluon.sqlhtml.SQLFORM object>, **kwargs={'dbio': True})"
p180
sg89
S'process'
p181
sa(dp182
g66
S'/home/mka/web2py/gluon/html.py'
p183
sg68
(dp184
S'self'
p185
S'<gluon.sqlhtml.SQLFORM object>'
p186
sS'self.accepts'
p187
S'<bound method SQLFORM.accepts of <gluon.sqlhtml.SQLFORM object>>'
p188
sS'kwargs'
p189
S"{'dbio': True, 'request_vars': <Storage {'kurssi_id': 'FY1', 'title': 'fy1-ty\\x...ormkey': '36c6bc9b-bb19-43f1-8cf6-3f29016e94e8'}>, 'session': <Storage {'kurssit_ids': ['6'], '_user_agent': <...gin]': ['9e5b7dd3-67e0-40db-8019-f01aa11ee537']}>}"
p190
ssg74
I2219
sg75
(dp191
I2214
S"        for key in ('message_onsuccess', 'message_onfailure', 'onsuccess',"
p192
sI2215
S"                    'onfailure', 'next', 'message_onchange', 'onchange'):"
p193
sI2216
S'            if key in kwargs:'
p194
sI2217
S'                del kwargs[key]'
p195
sI2218
S''
sI2219
S'        if self.accepts(**kwargs):'
p196
sI2220
S"            if onsuccess == 'flash':"
p197
sI2221
S'                if next:'
p198
sI2222
S'                    current.session.flash = message_onsuccess'
p199
sI2223
S'                else:'
p200
ssg87
S"(self=<gluon.sqlhtml.SQLFORM object>, **kwargs={'dbio': True, 'request_vars': <Storage {'kurssi_id': 'FY1', 'title': 'fy1-ty\\x...ormkey': '36c6bc9b-bb19-43f1-8cf6-3f29016e94e8'}>, 'session': <Storage {'kurssit_ids': ['6'], '_user_agent': <...gin]': ['9e5b7dd3-67e0-40db-8019-f01aa11ee537']}>})"
p201
sg89
S'validate'
p202
sa(dp203
g66
S'/home/mka/web2py/gluon/sqlhtml.py'
p204
sg68
(dp205
S'self.vars.id'
p206
S'None'
p207
sS'fields'
p208
S"{'kurssi_id': 0, 'opettaja_id': 2L, 'title': 'fy1-ty\\xc3\\xb62'}"
p209
sS'self'
p210
S'<gluon.sqlhtml.SQLFORM object>'
p211
sS'self.vars'
p212
S"<Storage {'kurssi_id': 'FY1', 'title': 'fy1-ty\\xc3\\xb62', 'opettaja_id': 2L}>"
p213
sS'self.table.insert'
p214
S'<bound method Table.insert of <Table kurssityon_nimi (id,title,kurssi_id,opettaja_id)>>'
p215
sS'self.table'
p216
S'<Table kurssityon_nimi (id,title,kurssi_id,opettaja_id)>'
p217
ssg74
I1592
sg75
(dp218
I1587
S'                    self.vars.id = self.record[self.id_field_name]'
p219
sI1588
S'                    if fields:'
p220
sI1589
S'                        self.table._db(self.table._id == self.record['
p221
sI1590
S'                                       self.id_field_name]).update(**fields)'
p222
sI1591
S'                else:'
p223
sI1592
S'                    self.vars.id = self.table.insert(**fields)'
p224
sI1593
S'        self.accepted = ret'
p225
sI1594
S'        return ret'
p226
sI1595
S''
sI1596
S'    AUTOTYPES = {'
p227
ssg87
S"(self=<gluon.sqlhtml.SQLFORM object>, request_vars=<Storage {'kurssi_id': 'FY1', 'title': 'fy1-ty\\x...ormkey': '36c6bc9b-bb19-43f1-8cf6-3f29016e94e8'}>, session=<Storage {'kurssit_ids': ['6'], '_user_agent': <...gin]': ['9e5b7dd3-67e0-40db-8019-f01aa11ee537']}>, formname='kurssityon_nimi/create', keepvalues=False, onvalidation=None, dbio=True, hideerror=False, detect_record_change=False, **kwargs={})"
p228
sg89
S'accepts'
p229
sa(dp230
g66
S'/home/mka/web2py/gluon/dal.py'
p231
sg68
(dp232
S'self._listify'
p233
S'<bound method Table._listify of <Table kurssityon_nimi (id,title,kurssi_id,opettaja_id)>>'
p234
sS'fields'
p235
S"{'kurssi_id': 0, 'opettaja_id': 2L, 'title': 'fy1-ty\\xc3\\xb62'}"
p236
sS'self'
p237
S'<Table kurssityon_nimi (id,title,kurssi_id,opettaja_id)>'
p238
sS'ret'
p239
g111
sS'self._db._adapter'
p240
S'<gluon.dal.SQLiteAdapter object>'
p241
sS'self._db._adapter.insert'
p242
S'<bound method SQLiteAdapter.insert of <gluon.dal.SQLiteAdapter object>>'
p243
sS'self._db'
p244
S'<DAL uri="sqlite://storage.sqlite">'
p245
ssg74
I9114
sg75
(dp246
I9109
S''
sI9110
S'    def insert(self, **fields):'
p247
sI9111
S'        fields = self._defaults(fields)'
p248
sI9112
S'        self._attempt_upload(fields)'
p249
sI9113
S'        if any(f(fields) for f in self._before_insert): return 0'
p250
sI9114
S'        ret =  self._db._adapter.insert(self, self._listify(fields))'
p251
sI9115
S'        if ret and self._after_insert:'
p252
sI9116
S'            fields = Row(fields)'
p253
sI9117
S'            [f(fields,ret) for f in self._after_insert]'
p254
sI9118
S'        return ret'
p255
ssg87
S"(self=<Table kurssityon_nimi (id,title,kurssi_id,opettaja_id)>, **fields={'kurssi_id': 0, 'opettaja_id': 2L, 'title': 'fy1-ty\\xc3\\xb62'})"
p256
sg89
S'insert'
p257
sa(dp258
g66
S'/home/mka/web2py/gluon/dal.py'
p259
sg68
(dp260
S'e'
S"IntegrityError('foreign key constraint failed',)"
p261
ssg74
I1360
sg75
(dp262
I1355
S'            self.execute(query)'
p263
sI1356
S'        except Exception:'
p264
sI1357
S'            e = sys.exc_info()[1]'
p265
sI1358
S"            if hasattr(table,'_on_insert_error'):"
p266
sI1359
S'                return table._on_insert_error(table,fields,e)'
p267
sI1360
S'            raise e'
p268
sI1361
S"        if hasattr(table, '_primarykey'):"
p269
sI1362
S'            mydict = dict([(k[0].name, k[1]) for k in fields if k[0].name in table._primarykey])'
p270
sI1363
S'            if mydict != {}:'
p271
sI1364
S'                return mydict'
p272
ssg87
S"(self=<gluon.dal.SQLiteAdapter object>, table=<Table kurssityon_nimi (id,title,kurssi_id,opettaja_id)>, fields=[(<gluon.dal.Field object>, 0), (<gluon.dal.Field object>, 'fy1-ty\\xc3\\xb62'), (<gluon.dal.Field object>, 2L)])"
p273
sg89
g257
sasS'pyver'
p274
S'Python 2.7.3: /usr/bin/python (prefix: /usr)'
p275
sS'session'
p276
g61
(S's+\n\x00\x00<div><table><tr><td style="font-weight:bold;vertical-align:top;">auth</td><td style="vertical-align:top;">:</td><td><div><table><tr><td style="font-weight:bold;vertical-align:top;">expiration</td><td style="vertical-align:top;">:</td><td><div>3600</div></td></tr><tr><td style="font-weight:bold;vertical-align:top;">hmac_key</td><td style="vertical-align:top;">:</td><td><div>6a09c4d4-0c52-4b36-91eb-e86eb5db95a5</div></td></tr><tr><td style="font-weight:bold;vertical-align:top;">last_visit</td><td style="vertical-align:top;">:</td><td><div>datetime.datetime(2014, 6, 22, 22, 16, 38, 714258)</div></td></tr><tr><td style="font-weight:bold;vertical-align:top;">remember</td><td style="vertical-align:top;">:</td><td><div>False</div></td></tr><tr><td style="font-weight:bold;vertical-align:top;">user</td><td style="vertical-align:top;">:</td><td><div><table><tr><td style="font-weight:bold;vertical-align:top;">email</td><td style="vertical-align:top;">:</td><td><div>onerva.opettaja@gmail.com</div></td></tr><tr><td style="font-weight:bold;vertical-align:top;">first_name</td><td style="vertical-align:top;">:</td><td><div>Onerva</div></td></tr><tr><td style="font-weight:bold;vertical-align:top;">id</td><td style="vertical-align:top;">:</td><td><div>4L</div></td></tr><tr><td style="font-weight:bold;vertical-align:top;">last_name</td><td style="vertical-align:top;">:</td><td><div>Opettaja</div></td></tr><tr><td style="font-weight:bold;vertical-align:top;">registration_id</td><td style="vertical-align:top;">:</td><td><div></div></td></tr><tr><td style="font-weight:bold;vertical-align:top;">registration_key</td><td style="vertical-align:top;">:</td><td><div></div></td></tr><tr><td style="font-weight:bold;vertical-align:top;">reset_password_key</td><td style="vertical-align:top;">:</td><td><div></div></td></tr><tr><td style="font-weight:bold;vertical-align:top;">username</td><td style="vertical-align:top;">:</td><td><div>onerva</div></td></tr></table></div></td></tr><tr><td style="font-weight:bold;vertical-align:top;">user_groups</td><td style="vertical-align:top;">:</td><td><div><table><tr><td style="font-weight:bold;vertical-align:top;">1</td><td style="vertical-align:top;">:</td><td><div>opettaja</div></td></tr></table></div></td></tr></table></div></td></tr><tr><td style="font-weight:bold;vertical-align:top;">flash</td><td style="vertical-align:top;">:</td><td><div>None</div></td></tr><tr><td style="font-weight:bold;vertical-align:top;">kurssit_ids</td><td style="vertical-align:top;">:</td><td><div><table><tr><td><div>6</div></td></tr></table></div></td></tr></table></div>'
tRp277
sS'etype'
p278
S"<class 'pysqlite2.dbapi2.IntegrityError'>"
p279
sS'date'
p280
S'Sun Jun 22 22:20:19 2014'
p281
sS'response'
p282
g61
(S'sZ2\x00\x00<div><table><tr><td style="font-weight:bold;vertical-align:top;">body</td><td style="vertical-align:top;">:</td><td><div>&lt;cStringIO.StringO object at 0xa711d7a0&gt;</div></td></tr><tr><td style="font-weight:bold;vertical-align:top;">cookies</td><td style="vertical-align:top;">:</td><td><div><table><tr><td style="font-weight:bold;vertical-align:top;">session_id_kurssihallinta</td><td style="vertical-align:top;">:</td><td><div>127.0.0.1-ffb5ca42-3b26-439d-80d0-e1cf45026abc<table><tr><td style="font-weight:bold;vertical-align:top;">comment</td><td style="vertical-align:top;">:</td><td><div></div></td></tr><tr><td style="font-weight:bold;vertical-align:top;">domain</td><td style="vertical-align:top;">:</td><td><div></div></td></tr><tr><td style="font-weight:bold;vertical-align:top;">expires</td><td style="vertical-align:top;">:</td><td><div></div></td></tr><tr><td style="font-weight:bold;vertical-align:top;">httponly</td><td style="vertical-align:top;">:</td><td><div></div></td></tr><tr><td style="font-weight:bold;vertical-align:top;">max-age</td><td style="vertical-align:top;">:</td><td><div></div></td></tr><tr><td style="font-weight:bold;vertical-align:top;">path</td><td style="vertical-align:top;">:</td><td><div>/</div></td></tr><tr><td style="font-weight:bold;vertical-align:top;">secure</td><td style="vertical-align:top;">:</td><td><div></div></td></tr><tr><td style="font-weight:bold;vertical-align:top;">version</td><td style="vertical-align:top;">:</td><td><div></div></td></tr></table></div></td></tr></table></div></td></tr><tr><td style="font-weight:bold;vertical-align:top;">delimiters</td><td style="vertical-align:top;">:</td><td><div><table><tr><td><div>{{</div></td></tr><tr><td><div>}}</div></td></tr></table></div></td></tr><tr><td style="font-weight:bold;vertical-align:top;">files</td><td style="vertical-align:top;">:</td><td><div><table></table></div></td></tr><tr><td style="font-weight:bold;vertical-align:top;">flash</td><td style="vertical-align:top;">:</td><td><div></div></td></tr><tr><td style="font-weight:bold;vertical-align:top;">generic_patterns</td><td style="vertical-align:top;">:</td><td><div><table></table></div></td></tr><tr><td style="font-weight:bold;vertical-align:top;">google_analytics_id</td><td style="vertical-align:top;">:</td><td><div>None</div></td></tr><tr><td style="font-weight:bold;vertical-align:top;">headers</td><td style="vertical-align:top;">:</td><td><div><table><tr><td style="font-weight:bold;vertical-align:top;">X-Powered-By</td><td style="vertical-align:top;">:</td><td><div>web2py</div></td></tr></table></div></td></tr><tr><td style="font-weight:bold;vertical-align:top;">menu</td><td style="vertical-align:top;">:</td><td><div><table><tr><td><div><table><tr><td><div>Home</div></td></tr><tr><td><div>False</div></td></tr><tr><td><div>/kurssihallinta/default/index</div></td></tr><tr><td><div><table></table></div></td></tr></table></div></td></tr><tr><td><div><table><tr><td><div><span style="color:yellow">web2py</span></div></td></tr><tr><td><div>False</div></td></tr><tr><td><div>None</div></td></tr><tr><td><div><table><tr><td><div><table><tr><td><div>My Sites</div></td></tr><tr><td><div>False</div></td></tr><tr><td><div>/admin/default/site</div></td></tr></table></div></td></tr><tr><td><div><table><tr><td><div>This App</div></td></tr><tr><td><div>False</div></td></tr><tr><td><div>/admin/default/design/kurssihallinta</div></td></tr><tr><td><div>[(&lt;lazyT &#x27;Controller&#x27;&gt;, False, &#x27;/admin/default/edit/kurssihallinta/controllers/opettaja.py&#x27;), (&lt;lazyT &#x27;View&#x27;&gt;, False, &#x27;/admin/default/edit/kurssihallinta/views/opettaja/opettaja_lisaa_kurssityo_otsikoita.html&#x27;), (&lt;lazyT &#x27;Layout&#x27;&gt;, False, &#x27;/admin/default/edit/kurssihallinta/views/layout.html&#x27;), (&lt;lazyT &#x27;Stylesheet&#x27;&gt;, False, &#x27;/admin/default/edit/kurssihallinta/static/css/web2py.css&#x27;), (&lt;lazyT &#x27;DB Model&#x27;&gt;, False, &#x27;/admin/default/edit/kurssihallinta/models/db.py&#x27;), (&lt;lazyT &#x27;Menu Model&#x27;&gt;, False, &#x27;/admin/default/edit/kurssihallinta/models/menu.py&#x27;), (&lt;lazyT &#x27;Database&#x27;&gt;, False, &#x27;/kurssihallinta/appadmin/index&#x27;), (&lt;lazyT &#x27;Errors&#x27;&gt;, False, &#x27;/admin/default/errors/kurssihallinta&#x27;), (&lt;lazyT &#x27;About&#x27;&gt;, False, &#x27;/admin/default/about/kurssihallinta&#x27;)]</div></td></tr></table></div></td></tr><tr><td><div><table><tr><td><div>web2py.com</div></td></tr><tr><td><div>False</div></td></tr><tr><td><div>http://www.web2py.com</div></td></tr><tr><td><div>[(&lt;lazyT &#x27;Download&#x27;&gt;, False, &#x27;http://www.web2py.com/examples/default/download&#x27;), (&lt;lazyT &#x27;Support&#x27;&gt;, False, &#x27;http://www.web2py.com/examples/default/support&#x27;), (&lt;lazyT &#x27;Demo&#x27;&gt;, False, &#x27;http://web2py.com/demo_admin&#x27;), (&lt;lazyT &#x27;Quick Examples&#x27;&gt;, False, &#x27;http://web2py.com/examples/default/examples&#x27;), (&lt;lazyT &#x27;FAQ&#x27;&gt;, False, &#x27;http://web2py.com/AlterEgo&#x27;), (&lt;lazyT &#x27;Videos&#x27;&gt;, False, &#x27;http://www.web2py.com/examples/default/videos/&#x27;), (&lt;lazyT &#x27;Free Applications&#x27;&gt;, False, &#x27;http://web2py.com/appliances&#x27;), (&lt;lazyT &#x27;Plugins&#x27;&gt;, False, &#x27;http://web2py.com/plugins&#x27;), (&lt;lazyT &#x27;Layouts&#x27;&gt;, False, &#x27;http://web2py.com/layouts&#x27;), (&lt;lazyT &#x27;Recipes&#x27;&gt;, False, &#x27;http://web2pyslices.com/&#x27;), (&lt;lazyT &#x27;Semantic&#x27;&gt;, False, &#x27;http://web2py.com/semantic&#x27;)]</div></td></tr></table></div></td></tr><tr><td><div><table><tr><td><div>Documentation</div></td></tr><tr><td><div>False</div></td></tr><tr><td><div>http://www.web2py.com/book</div></td></tr><tr><td><div>[(&lt;lazyT &#x27;Preface&#x27;&gt;, False, &#x27;http://www.web2py.com/book/default/chapter/00&#x27;), (&lt;lazyT &#x27;Introduction&#x27;&gt;, False, &#x27;http://www.web2py.com/book/default/chapter/01&#x27;), (&lt;lazyT &#x27;Python&#x27;&gt;, False, &#x27;http://www.web2py.com/book/default/chapter/02&#x27;), (&lt;lazyT &#x27;Overview&#x27;&gt;, False, &#x27;http://www.web2py.com/book/default/chapter/03&#x27;), (&lt;lazyT &#x27;The Core&#x27;&gt;, False, &#x27;http://www.web2py.com/book/default/chapter/04&#x27;), (&lt;lazyT &#x27;The Views&#x27;&gt;, False, &#x27;http://www.web2py.com/book/default/chapter/05&#x27;), (&lt;lazyT &#x27;Database&#x27;&gt;, False, &#x27;http://www.web2py.com/book/default/chapter/06&#x27;), (&lt;lazyT &#x27;Forms and Validators&#x27;&gt;, False, &#x27;http://www.web2py.com/book/default/chapter/07&#x27;), (&lt;lazyT &#x27;Email and SMS&#x27;&gt;, False, &#x27;http://www.web2py.com/book/default/chapter/08&#x27;), (&lt;lazyT &#x27;Access Control&#x27;&gt;, False, &#x27;http://www.web2py.com/book/default/chapter/09&#x27;), (&lt;lazyT &#x27;Services&#x27;&gt;, False, &#x27;http://www.web2py.com/book/default/chapter/10&#x27;), (&lt;lazyT &#x27;Ajax Recipes&#x27;&gt;, False, &#x27;http://www.web2py.com/book/default/chapter/11&#x27;), (&lt;lazyT &#x27;Components and Plugins&#x27;&gt;, False, &#x27;http://www.web2py.com/book/default/chapter/12&#x27;), (&lt;lazyT &#x27;Deployment Recipes&#x27;&gt;, False, &#x27;http://www.web2py.com/book/default/chapter/13&#x27;), (&lt;lazyT &#x27;Other Recipes&#x27;&gt;, False, &#x27;http://www.web2py.com/book/default/chapter/14&#x27;), (&lt;lazyT &#x27;Buy this book&#x27;&gt;, False, &#x27;http://stores.lulu.com/web2py&#x27;)]</div></td></tr></table></div></td></tr><tr><td><div><table><tr><td><div>Community</div></td></tr><tr><td><div>False</div></td></tr><tr><td><div>None</div></td></tr><tr><td><div>[(&lt;lazyT &#x27;Groups&#x27;&gt;, False, &#x27;http://www.web2py.com/examples/default/usergroups&#x27;), (&lt;lazyT &#x27;Twitter&#x27;&gt;, False, &#x27;http://twitter.com/web2py&#x27;), (&lt;lazyT &#x27;Live Chat&#x27;&gt;, False, &#x27;http://webchat.freenode.net/?channels=web2py&#x27;)]</div></td></tr></table></div></td></tr><tr><td><div><table><tr><td><div>Plugins</div></td></tr><tr><td><div>False</div></td></tr><tr><td><div>None</div></td></tr><tr><td><div>[(&#x27;plugin_wiki&#x27;, False, &#x27;http://web2py.com/examples/default/download&#x27;), (&lt;lazyT &#x27;Other Plugins&#x27;&gt;, False, &#x27;http://web2py.com/plugins&#x27;), (&lt;lazyT &#x27;Layout Plugins&#x27;&gt;, False, &#x27;http://web2py.com/layouts&#x27;)]</div></td></tr></table></div></td></tr></table></div></td></tr></table></div></td></tr></table></div></td></tr><tr><td style="font-weight:bold;vertical-align:top;">meta</td><td style="vertical-align:top;">:</td><td><div><table><tr><td style="font-weight:bold;vertical-align:top;">author</td><td style="vertical-align:top;">:</td><td><div>Your Name &lt;you@example.com&gt;</div></td></tr><tr><td style="font-weight:bold;vertical-align:top;">copyright</td><td style="vertical-align:top;">:</td><td><div>Copyright 2011</div></td></tr><tr><td style="font-weight:bold;vertical-align:top;">description</td><td style="vertical-align:top;">:</td><td><div>a cool new app</div></td></tr><tr><td style="font-weight:bold;vertical-align:top;">generator</td><td style="vertical-align:top;">:</td><td><div>Web2py Web Framework</div></td></tr><tr><td style="font-weight:bold;vertical-align:top;">keywords</td><td style="vertical-align:top;">:</td><td><div>web2py, python, framework</div></td></tr></table></div></td></tr><tr><td style="font-weight:bold;vertical-align:top;">models_to_run</td><td style="vertical-align:top;">:</td><td><div><table><tr><td><div>^\\w+\\.py$</div></td></tr><tr><td><div>^opettaja/\\w+\\.py$</div></td></tr><tr><td><div>^opettaja/opettaja_lisaa_kurssityo_otsikoita/\\w+\\.py$</div></td></tr></table></div></td></tr><tr><td style="font-weight:bold;vertical-align:top;">postprocessing</td><td style="vertical-align:top;">:</td><td><div><table></table></div></td></tr><tr><td style="font-weight:bold;vertical-align:top;">session_client</td><td style="vertical-align:top;">:</td><td><div>127.0.0.1</div></td></tr><tr><td style="font-weight:bold;vertical-align:top;">session_cookie_compression_level</td><td style="vertical-align:top;">:</td><td><div>None</div></td></tr><tr><td style="font-weight:bold;vertical-align:top;">session_cookie_expires</td><td style="vertical-align:top;">:</td><td><div>None</div></td></tr><tr><td style="font-weight:bold;vertical-align:top;">session_cookie_key</td><td style="vertical-align:top;">:</td><td><div>None</div></td></tr><tr><td style="font-weight:bold;vertical-align:top;">session_data_name</td><td style="vertical-align:top;">:</td><td><div>session_data_kurssihallinta</div></td></tr><tr><td style="font-weight:bold;vertical-align:top;">session_file</td><td style="vertical-align:top;">:</td><td><div>&lt;open file &#x27;/home/mka/web2py/applications/kurssihallinta/sessions/127.0.0.1-ffb5ca42-3b26-439d-80d0-e1cf45026abc&#x27;, mode &#x27;rb+&#x27; at 0xa7553910&gt;</div></td></tr><tr><td style="font-weight:bold;vertical-align:top;">session_filename</td><td style="vertical-align:top;">:</td><td><div>/home/mka/web2py/applications/kurssihallinta/sessions/127.0.0.1-ffb5ca42-3b26-439d-80d0-e1cf45026abc</div></td></tr><tr><td style="font-weight:bold;vertical-align:top;">session_hash</td><td style="vertical-align:top;">:</td><td><div>fc4ab45aebf049fea1fed0bdd1f3e07b</div></td></tr><tr><td style="font-weight:bold;vertical-align:top;">session_id</td><td style="vertical-align:top;">:</td><td><div>127.0.0.1-ffb5ca42-3b26-439d-80d0-e1cf45026abc</div></td></tr><tr><td style="font-weight:bold;vertical-align:top;">session_id_name</td><td style="vertical-align:top;">:</td><td><div>session_id_kurssihallinta</div></td></tr><tr><td style="font-weight:bold;vertical-align:top;">session_locked</td><td style="vertical-align:top;">:</td><td><div>True</div></td></tr><tr><td style="font-weight:bold;vertical-align:top;">session_masterapp</td><td style="vertical-align:top;">:</td><td><div>kurssihallinta</div></td></tr><tr><td style="font-weight:bold;vertical-align:top;">session_new</td><td style="vertical-align:top;">:</td><td><div>False</div></td></tr><tr><td style="font-weight:bold;vertical-align:top;">session_storage_type</td><td style="vertical-align:top;">:</td><td><div>file</div></td></tr><tr><td style="font-weight:bold;vertical-align:top;">status</td><td style="vertical-align:top;">:</td><td><div>200</div></td></tr><tr><td style="font-weight:bold;vertical-align:top;">subtitle</td><td style="vertical-align:top;">:</td><td><div> </div></td></tr><tr><td style="font-weight:bold;vertical-align:top;">title</td><td style="vertical-align:top;">:</td><td><div>Kurssihallinta</div></td></tr><tr><td style="font-weight:bold;vertical-align:top;">view</td><td style="vertical-align:top;">:</td><td><div>opettaja/opettaja_lisaa_kurssityo_otsikoita.html</div></td></tr></table></div>'
tRp283
sS'locals'
p284
(dp285
S'fields'
p286
S"[(<gluon.dal.Field object>, 0), (<gluon.dal.Field object>, 'fy1-ty\\xc3\\xb62'), (<gluon.dal.Field object>, 2L)]"
p287
sS'self'
p288
S'<gluon.dal.SQLiteAdapter object>'
p289
sS'e'
S"IntegrityError('foreign key constraint failed',)"
p290
sS'table'
p291
S'<Table kurssityon_nimi (id,title,kurssi_id,opettaja_id)>'
p292
sS'query'
p293
S'"INSERT INTO kurssityon_nimi(kurssi_id,title,opettaja_id) VALUES (0,\'fy1-ty\\xc3\\xb62\',2);"'
p294
sssS'traceback'
p295
S'Traceback (most recent call last):\n  File "/home/mka/web2py/gluon/restricted.py", line 220, in restricted\n    exec ccode in environment\n  File "/home/mka/web2py/applications/kurssihallinta/controllers/opettaja.py", line 202, in <module>\n  File "/home/mka/web2py/gluon/globals.py", line 385, in <lambda>\n    self._caller = lambda f: f()\n  File "/home/mka/web2py/gluon/tools.py", line 3287, in f\n    return action(*a, **b)\n  File "/home/mka/web2py/applications/kurssihallinta/controllers/opettaja.py", line 194, in opettaja_lisaa_kurssityo_otsikoita\n    if form.process().accepted:\n  File "/home/mka/web2py/gluon/html.py", line 2282, in process\n    self.validate(**kwargs)\n  File "/home/mka/web2py/gluon/html.py", line 2219, in validate\n    if self.accepts(**kwargs):\n  File "/home/mka/web2py/gluon/sqlhtml.py", line 1592, in accepts\n    self.vars.id = self.table.insert(**fields)\n  File "/home/mka/web2py/gluon/dal.py", line 9114, in insert\n    ret =  self._db._adapter.insert(self, self._listify(fields))\n  File "/home/mka/web2py/gluon/dal.py", line 1360, in insert\n    raise e\nIntegrityError: foreign key constraint failed\n'
p296
s.