(dp1
S'output'
p2
S"<type 'exceptions.SyntaxError'> Field opiskelija_1d does not belong to the table"
p3
sS'layer'
p4
S'/home/mka/web2py/applications/kurssihallinta/controllers/opiskelija.py'
p5
sS'code'
p6
S'# -*- coding: utf-8 -*-\n#reload modules\nfrom gluon.custom_import import track_changes; track_changes(True)\nimport opiskelija_haut  #tietokantahaut ../modules/opiskelija_haut.py\nimport kurssi_haut  #tietokantahaut ../modules/kurssi_haut.py\n\n@auth.requires_membership(\'opiskelija\')\ndef opiskelija_kaikki_kurssit():\n    """\n    Opiskelijan kaikki kurssit. Niit\xc3\xa4 voi editoida, tuhota tai katsoa.\n    """\n    import sys\n\n    query = opiskelija_haut.hae_opiskelijan_kaikki_kurssit(db)\n\n    form_lisaa = FORM(\'Lis\xc3\xa4\xc3\xa4 ty\xc3\xb6:\',\n                         SELECT(\'Lis\xc3\xa4\xc3\xa4!\',\n                                _name="my_selector"),\n                         INPUT(_type=\'submit\'))\n    default_sort_order=[db.kurssityo.kurssi_id]\n    #fields = (db.kurssityo.kurssityon_nimi,db.kurssityo.palautettu, \n    #          db.kurssityo.korjattu,db.kurssityo.arvosana,\n    #          db.kurssityo.kurssi_id)\n    #headers = {\'kurssityo.kurssityon_nimi\':   \'Kurssity\xc3\xb6\',\n    #           \'kurssityo.palautettu\':   \'Palautettu\',\n    #           \'kurssityo.korjattu\':   \'Korjattu\',\n    #           \'kurssityo.arvosana\':   \'Arvosana\',\n    #           \'kurssityo.kurssi_id\':   \'Kurssi\'}               \n    #form = SQLFORM.grid(query,create=False,searchable=False,\n    #                    orderby=default_sort_order,\n    #                    fields=fields, headers=headers)\n    form = SQLFORM.grid(query,create=False,searchable=False,\n                        orderby=default_sort_order)\n\n    response.view = \'opiskelija/opiskelija_kaikki_kurssit.html\'\n\n    if form_lisaa.process().accepted:\n        #print "LISATAAN !!!"\n        redirect(URL(\'opiskelija_lisaa_kurssityo\'))\n\n    return dict(form=form, form_lisaa=form_lisaa)\n\n@auth.requires_membership(\'opiskelija\')\ndef opiskelija_lisaa_kurssityo():\n    """\n    Opiskelija voi lis\xc3\xa4t\xc3\xa4 yhden kurssity\xc3\xb6n\n    """\n    from gluon.tools import Auth\n    auth = Auth(db)\n# alasvetovalikon rajoituksia\n    print "ooopiskelija id", \\\n        db(db.opiskelija.user_id == auth.user_id).select(db.opiskelija.id)\n    current_opiskelija = \\\n        db(db.opiskelija.user_id == auth.user_id).select(db.opiskelija.id)\n    print "current_opiskelija",current_opiskelija[0].id\n\n    #db.kurssityo.opiskelija_id.default = current_opiskelija[0].id\n\n\n    form = SQLFORM(db.kurssityo,\n                   fields = [\'kurssityon_nimi\',\'palautettu\'])\n    #form = SQLFORM(db.kurssityo, comments=True)\n\n    form.vars.kurssi_id = 1\n    form.vars.opiskelija_1d = 1\n    if form.process().accepted:\n        #haetaan mille kurssille kurssity\xc3\xb6 kuuluu\n        current_kurssi = \\\n        db(db.kurssityo.kurssi_id == db.kurssi.id).select(db.kurssi.id)\n        #lis\xc3\xa4t\xc3\xa4\xc3\xa4n tietokannan viimeiselle riville opiskelijan ja kurssin id\n        rows = db(db.kurssityo).select()\n        last_row = rows.last()\n        print "last_row1", last_row\n        last_row.opiskelija_id = current_opiskelija[0].id\n        last_row.kurssi_id = current_kurssi[0].id\n        db.commit\n        #request.vars.opiskelija_id = current_opiskelija[0].id\n        #request.vars.kurssi_id = current_kurssi[0].id\n        #print "form.vars.kurssi_id", form.vars.kurssi_id \n        #last_row.opiskelija_id = \\\n        #    db(db.opiskelija.user_id == auth.user_id).select(db.opiskelija.id)\n        #form.element(_name=\'kurssi_id\').update(_value=current_kurssi[0].id)\n        #form.element(_name=\'opiskelija_id\').update(_value=current_opiskelija[0].id)\n\n        #print "FVI",form.vars.id\n        #form.vars.kurssi_id = \\\n        #    (db(db.kurssityo.kurssi_id == db.kurssi.id).\\\n        #         select(db.kurssityo.kurssi_id))\n\n        #db.kurssityo[form.vars.id] = dict(opiskelija_id=current_opiskelija)\n        #db.kurssityo[form.vars.id] = dict(kurssi_id=1)\n        redirect(URL(\'opiskelija_kaikki_kurssit\'))\n    return dict(form=form)\n\nresponse._vars=response._caller(opiskelija_lisaa_kurssityo)\n'
p7
sS'snapshot'
p8
(dp9
S'exception'
p10
(dp11
S'__getslice__'
p12
S"<method-wrapper '__getslice__' of exceptions.SyntaxError object>"
p13
sS'text'
p14
S'None'
p15
sS'__str__'
p16
S"<method-wrapper '__str__' of exceptions.SyntaxError object>"
p17
sS'__reduce__'
p18
S'<built-in method __reduce__ of exceptions.SyntaxError object>'
p19
sS'__dict__'
p20
S'{}'
p21
sS'__sizeof__'
p22
S'<built-in method __sizeof__ of exceptions.SyntaxError object>'
p23
sS'__init__'
p24
S"<method-wrapper '__init__' of exceptions.SyntaxError object>"
p25
sS'__setattr__'
p26
S"<method-wrapper '__setattr__' of exceptions.SyntaxError object>"
p27
sS'__reduce_ex__'
p28
S'<built-in method __reduce_ex__ of exceptions.SyntaxError object>'
p29
sS'__new__'
p30
S'<built-in method __new__ of type object>'
p31
sS'__format__'
p32
S'<built-in method __format__ of exceptions.SyntaxError object>'
p33
sS'__class__'
p34
S"<type 'exceptions.SyntaxError'>"
p35
sS'filename'
p36
S'None'
p37
sS'lineno'
p38
S'None'
p39
sS'msg'
p40
S"'Field opiskelija_1d does not belong to the table'"
p41
sS'__doc__'
p42
S"'Invalid syntax.'"
p43
sS'__getitem__'
p44
S"<method-wrapper '__getitem__' of exceptions.SyntaxError object>"
p45
sS'__setstate__'
p46
S'<built-in method __setstate__ of exceptions.SyntaxError object>'
p47
sS'__getattribute__'
p48
S"<method-wrapper '__getattribute__' of exceptions.SyntaxError object>"
p49
sS'print_file_and_line'
p50
S'None'
p51
sS'args'
p52
S"('Field opiskelija_1d does not belong to the table',)"
p53
sS'__subclasshook__'
p54
S'<built-in method __subclasshook__ of type object>'
p55
sS'offset'
p56
S'None'
p57
sS'__unicode__'
p58
S'<built-in method __unicode__ of exceptions.SyntaxError object>'
p59
sS'__delattr__'
p60
S"<method-wrapper '__delattr__' of exceptions.SyntaxError object>"
p61
sS'__repr__'
p62
S"<method-wrapper '__repr__' of exceptions.SyntaxError object>"
p63
sS'__hash__'
p64
S"<method-wrapper '__hash__' of exceptions.SyntaxError object>"
p65
ssS'evalue'
p66
S'Field opiskelija_1d does not belong to the table'
p67
sS'request'
p68
cgluon.html
XML_unpickle
p69
(S's\xbcc\x00\x00<div><table><tr><td style="font-weight:bold;vertical-align:top;">ajax</td><td style="vertical-align:top;">:</td><td><div>False</div></td></tr><tr><td style="font-weight:bold;vertical-align:top;">application</td><td style="vertical-align:top;">:</td><td><div>kurssihallinta</div></td></tr><tr><td style="font-weight:bold;vertical-align:top;">args</td><td style="vertical-align:top;">:</td><td><div><table></table></div></td></tr><tr><td style="font-weight:bold;vertical-align:top;">cid</td><td style="vertical-align:top;">:</td><td><div>None</div></td></tr><tr><td style="font-weight:bold;vertical-align:top;">client</td><td style="vertical-align:top;">:</td><td><div>127.0.0.1</div></td></tr><tr><td style="font-weight:bold;vertical-align:top;">controller</td><td style="vertical-align:top;">:</td><td><div>opiskelija</div></td></tr><tr><td style="font-weight:bold;vertical-align:top;">cookies</td><td style="vertical-align:top;">:</td><td><div><table><tr><td style="font-weight:bold;vertical-align:top;">session_id_admin</td><td style="vertical-align:top;">:</td><td><div>127.0.0.1-0c194368-3f9c-4fd8-8693-2b223f33a349<table><tr><td style="font-weight:bold;vertical-align:top;">comment</td><td style="vertical-align:top;">:</td><td><div></div></td></tr><tr><td style="font-weight:bold;vertical-align:top;">domain</td><td style="vertical-align:top;">:</td><td><div></div></td></tr><tr><td style="font-weight:bold;vertical-align:top;">expires</td><td style="vertical-align:top;">:</td><td><div></div></td></tr><tr><td style="font-weight:bold;vertical-align:top;">httponly</td><td style="vertical-align:top;">:</td><td><div></div></td></tr><tr><td style="font-weight:bold;vertical-align:top;">max-age</td><td style="vertical-align:top;">:</td><td><div></div></td></tr><tr><td style="font-weight:bold;vertical-align:top;">path</td><td style="vertical-align:top;">:</td><td><div></div></td></tr><tr><td style="font-weight:bold;vertical-align:top;">secure</td><td style="vertical-align:top;">:</td><td><div></div></td></tr><tr><td style="font-weight:bold;vertical-align:top;">version</td><td style="vertical-align:top;">:</td><td><div></div></td></tr></table></div></td></tr><tr><td style="font-weight:bold;vertical-align:top;">session_id_kurssihallinta</td><td style="vertical-align:top;">:</td><td><div>127.0.0.1-0dd397d8-56d1-42a5-aed6-5ec08380ed57<table><tr><td style="font-weight:bold;vertical-align:top;">comment</td><td style="vertical-align:top;">:</td><td><div></div></td></tr><tr><td style="font-weight:bold;vertical-align:top;">domain</td><td style="vertical-align:top;">:</td><td><div></div></td></tr><tr><td style="font-weight:bold;vertical-align:top;">expires</td><td style="vertical-align:top;">:</td><td><div></div></td></tr><tr><td style="font-weight:bold;vertical-align:top;">httponly</td><td style="vertical-align:top;">:</td><td><div></div></td></tr><tr><td style="font-weight:bold;vertical-align:top;">max-age</td><td style="vertical-align:top;">:</td><td><div></div></td></tr><tr><td style="font-weight:bold;vertical-align:top;">path</td><td style="vertical-align:top;">:</td><td><div></div></td></tr><tr><td style="font-weight:bold;vertical-align:top;">secure</td><td style="vertical-align:top;">:</td><td><div></div></td></tr><tr><td style="font-weight:bold;vertical-align:top;">version</td><td style="vertical-align:top;">:</td><td><div></div></td></tr></table></div></td></tr><tr><td style="font-weight:bold;vertical-align:top;">session_id_welcome</td><td style="vertical-align:top;">:</td><td><div>127.0.0.1-aa46ceb7-f5c9-4dc6-8982-3c76ff4759d5<table><tr><td style="font-weight:bold;vertical-align:top;">comment</td><td style="vertical-align:top;">:</td><td><div></div></td></tr><tr><td style="font-weight:bold;vertical-align:top;">domain</td><td style="vertical-align:top;">:</td><td><div></div></td></tr><tr><td style="font-weight:bold;vertical-align:top;">expires</td><td style="vertical-align:top;">:</td><td><div></div></td></tr><tr><td style="font-weight:bold;vertical-align:top;">httponly</td><td style="vertical-align:top;">:</td><td><div></div></td></tr><tr><td style="font-weight:bold;vertical-align:top;">max-age</td><td style="vertical-align:top;">:</td><td><div></div></td></tr><tr><td style="font-weight:bold;vertical-align:top;">path</td><td style="vertical-align:top;">:</td><td><div></div></td></tr><tr><td style="font-weight:bold;vertical-align:top;">secure</td><td style="vertical-align:top;">:</td><td><div></div></td></tr><tr><td style="font-weight:bold;vertical-align:top;">version</td><td style="vertical-align:top;">:</td><td><div></div></td></tr></table></div></td></tr></table></div></td></tr><tr><td style="font-weight:bold;vertical-align:top;">env</td><td style="vertical-align:top;">:</td><td><div><table><tr><td style="font-weight:bold;vertical-align:top;">CONTENT_LENGTH</td><td style="vertical-align:top;">:</td><td><div>540</div></td></tr><tr><td style="font-weight:bold;vertical-align:top;">CONTENT_TYPE</td><td style="vertical-align:top;">:</td><td><div>multipart/form-data; boundary=----WebKitFormBoundaryAv65anodzgEDUUYD</div></td></tr><tr><td style="font-weight:bold;vertical-align:top;">HTTP_ACCEPT</td><td style="vertical-align:top;">:</td><td><div>text/html,application/xhtml+xml,application/xml;q=0.9,*/*;q=0.8</div></td></tr><tr><td style="font-weight:bold;vertical-align:top;">HTTP_ACCEPT_CHARSET</td><td style="vertical-align:top;">:</td><td><div>ISO-8859-1,utf-8;q=0.7,*;q=0.3</div></td></tr><tr><td style="font-weight:bold;vertical-align:top;">HTTP_ACCEPT_ENCODING</td><td style="vertical-align:top;">:</td><td><div>gzip,deflate,sdch</div></td></tr><tr><td style="font-weight:bold;vertical-align:top;">HTTP_ACCEPT_LANGUAGE</td><td style="vertical-align:top;">:</td><td><div>en-US,en;q=0.8</div></td></tr><tr><td style="font-weight:bold;vertical-align:top;">HTTP_CACHE_CONTROL</td><td style="vertical-align:top;">:</td><td><div>max-age=0</div></td></tr><tr><td style="font-weight:bold;vertical-align:top;">HTTP_CONNECTION</td><td style="vertical-align:top;">:</td><td><div>keep-alive</div></td></tr><tr><td style="font-weight:bold;vertical-align:top;">HTTP_CONTENT_LENGTH</td><td style="vertical-align:top;">:</td><td><div>540</div></td></tr><tr><td style="font-weight:bold;vertical-align:top;">HTTP_CONTENT_TYPE</td><td style="vertical-align:top;">:</td><td><div>multipart/form-data; boundary=----WebKitFormBoundaryAv65anodzgEDUUYD</div></td></tr><tr><td style="font-weight:bold;vertical-align:top;">HTTP_COOKIE</td><td style="vertical-align:top;">:</td><td><div>session_id_welcome=127.0.0.1-aa46ceb7-f5c9-4dc6-8982-3c76ff4759d5; session_id_admin=127.0.0.1-0c194368-3f9c-4fd8-8693-2b223f33a349; session_id_kurssihallinta=127.0.0.1-0dd397d8-56d1-42a5-aed6-5ec08380ed57</div></td></tr><tr><td style="font-weight:bold;vertical-align:top;">HTTP_HOST</td><td style="vertical-align:top;">:</td><td><div>127.0.0.1:8000</div></td></tr><tr><td style="font-weight:bold;vertical-align:top;">HTTP_ORIGIN</td><td style="vertical-align:top;">:</td><td><div>http://127.0.0.1:8000</div></td></tr><tr><td style="font-weight:bold;vertical-align:top;">HTTP_REFERER</td><td style="vertical-align:top;">:</td><td><div>http://127.0.0.1:8000/kurssihallinta/opiskelija/opiskelija_lisaa_kurssityo</div></td></tr><tr><td style="font-weight:bold;vertical-align:top;">HTTP_USER_AGENT</td><td style="vertical-align:top;">:</td><td><div>Mozilla/5.0 (X11; Linux i686) AppleWebKit/537.31 (KHTML, like Gecko) Chrome/26.0.1410.63 Safari/537.31</div></td></tr><tr><td style="font-weight:bold;vertical-align:top;">PATH_INFO</td><td style="vertical-align:top;">:</td><td><div>/kurssihallinta/opiskelija/opiskelija_lisaa_kurssityo</div></td></tr><tr><td style="font-weight:bold;vertical-align:top;">QUERY_STRING</td><td style="vertical-align:top;">:</td><td><div></div></td></tr><tr><td style="font-weight:bold;vertical-align:top;">REMOTE_ADDR</td><td style="vertical-align:top;">:</td><td><div>127.0.0.1</div></td></tr><tr><td style="font-weight:bold;vertical-align:top;">REMOTE_PORT</td><td style="vertical-align:top;">:</td><td><div>48873</div></td></tr><tr><td style="font-weight:bold;vertical-align:top;">REQUEST_METHOD</td><td style="vertical-align:top;">:</td><td><div>POST</div></td></tr><tr><td style="font-weight:bold;vertical-align:top;">SCRIPT_NAME</td><td style="vertical-align:top;">:</td><td><div></div></td></tr><tr><td style="font-weight:bold;vertical-align:top;">SERVER_NAME</td><td style="vertical-align:top;">:</td><td><div>mka3830TG</div></td></tr><tr><td style="font-weight:bold;vertical-align:top;">SERVER_PORT</td><td style="vertical-align:top;">:</td><td><div>8000</div></td></tr><tr><td style="font-weight:bold;vertical-align:top;">SERVER_PROTOCOL</td><td style="vertical-align:top;">:</td><td><div>HTTP/1.1</div></td></tr><tr><td style="font-weight:bold;vertical-align:top;">SERVER_SOFTWARE</td><td style="vertical-align:top;">:</td><td><div>Rocket 1.2.6</div></td></tr><tr><td style="font-weight:bold;vertical-align:top;">app_folders</td><td style="vertical-align:top;">:</td><td><div>set([&#x27;/home/mka/web2py/applications/welcome/&#x27;, &#x27;/home/mka/web2py/applications/admin/&#x27;, &#x27;/home/mka/web2py/applications/kurssihallinta/&#x27;])</div></td></tr><tr><td style="font-weight:bold;vertical-align:top;">applications_parent</td><td style="vertical-align:top;">:</td><td><div>/home/mka/web2py</div></td></tr><tr><td style="font-weight:bold;vertical-align:top;">cmd_args</td><td style="vertical-align:top;">:</td><td><div><table></table></div></td></tr><tr><td style="font-weight:bold;vertical-align:top;">cmd_options</td><td style="vertical-align:top;">:</td><td><div>&lt;Values at 0x92079cc: {&#x27;verbose&#x27;: False, &#x27;ip&#x27;: &#x27;127.0.0.1&#x27;, &#x27;debuglevel&#x27;: 30, &#x27;with_scheduler&#x27;: False, &#x27;ips&#x27;: [&#x27;::1&#x27;], &#x27;shutdown_timeout&#x27;: 5, &#x27;taskbar&#x27;: False, &#x27;with_coverage&#x27;: False, &#x27;port&#x27;: 8000, &#x27;maxthreads&#x27;: None, &#x27;softcron&#x27;: False, &#x27;server_name&#x27;: &#x27;mka3830TG&#x27;, &#x27;bpython&#x27;: False, &#x27;nogui&#x27;: False, &#x27;pid_filename&#x27;: &#x27;httpserver.pid&#x27;, &#x27;extcron&#x27;: False, &#x27;runcron&#x27;: False, &#x27;run_system_tests&#x27;: False, &#x27;test&#x27;: None, &#x27;folder&#x27;: &#x27;/home/mka/web2py&#x27;, &#x27;config&#x27;: &#x27;&#x27;, &#x27;minthreads&#x27;: None, &#x27;shell&#x27;: None, &#x27;run&#x27;: &#x27;&#x27;, &#x27;log_filename&#x27;: &#x27;httpserver.log&#x27;, &#x27;profiler_dir&#x27;: None, &#x27;args&#x27;: [&#x27;&#x27;], &#x27;socket_timeout&#x27;: 5, &#x27;ssl_ca_certificate&#x27;: None, &#x27;scheduler&#x27;: None, &#x27;interfaces&#x27;: None, &#x27;ssl_private_key&#x27;: &#x27;&#x27;, &#x27;scheduler_groups&#x27;: None, &#x27;password&#x27;: &#x27;&lt;ask&gt;&#x27;, &#x27;request_queue_size&#x27;: 5, &#x27;ssl_certificate&#x27;: &#x27;&#x27;, &#x27;cronjob&#x27;: False, &#x27;numthreads&#x27;: None, &#x27;quiet&#x27;: False, &#x27;import_models&#x27;: False, &#x27;timeout&#x27;: 10, &#x27;plain&#x27;: False, &#x27;nobanner&#x27;: False}&gt;</div></td></tr><tr><td style="font-weight:bold;vertical-align:top;">content_length</td><td style="vertical-align:top;">:</td><td><div>540</div></td></tr><tr><td style="font-weight:bold;vertical-align:top;">content_type</td><td style="vertical-align:top;">:</td><td><div>multipart/form-data; boundary=----WebKitFormBoundaryAv65anodzgEDUUYD</div></td></tr><tr><td style="font-weight:bold;vertical-align:top;">db_sessions</td><td style="vertical-align:top;">:</td><td><div>set([])</div></td></tr><tr><td style="font-weight:bold;vertical-align:top;">debugging</td><td style="vertical-align:top;">:</td><td><div>False</div></td></tr><tr><td style="font-weight:bold;vertical-align:top;">gluon_parent</td><td style="vertical-align:top;">:</td><td><div>/home/mka/web2py</div></td></tr><tr><td style="font-weight:bold;vertical-align:top;">http_accept</td><td style="vertical-align:top;">:</td><td><div>text/html,application/xhtml+xml,application/xml;q=0.9,*/*;q=0.8</div></td></tr><tr><td style="font-weight:bold;vertical-align:top;">http_accept_charset</td><td style="vertical-align:top;">:</td><td><div>ISO-8859-1,utf-8;q=0.7,*;q=0.3</div></td></tr><tr><td style="font-weight:bold;vertical-align:top;">http_accept_encoding</td><td style="vertical-align:top;">:</td><td><div>gzip,deflate,sdch</div></td></tr><tr><td style="font-weight:bold;vertical-align:top;">http_accept_language</td><td style="vertical-align:top;">:</td><td><div>en-US,en;q=0.8</div></td></tr><tr><td style="font-weight:bold;vertical-align:top;">http_cache_control</td><td style="vertical-align:top;">:</td><td><div>max-age=0</div></td></tr><tr><td style="font-weight:bold;vertical-align:top;">http_connection</td><td style="vertical-align:top;">:</td><td><div>keep-alive</div></td></tr><tr><td style="font-weight:bold;vertical-align:top;">http_content_length</td><td style="vertical-align:top;">:</td><td><div>540</div></td></tr><tr><td style="font-weight:bold;vertical-align:top;">http_content_type</td><td style="vertical-align:top;">:</td><td><div>multipart/form-data; boundary=----WebKitFormBoundaryAv65anodzgEDUUYD</div></td></tr><tr><td style="font-weight:bold;vertical-align:top;">http_cookie</td><td style="vertical-align:top;">:</td><td><div>session_id_welcome=127.0.0.1-aa46ceb7-f5c9-4dc6-8982-3c76ff4759d5; session_id_admin=127.0.0.1-0c194368-3f9c-4fd8-8693-2b223f33a349; session_id_kurssihallinta=127.0.0.1-0dd397d8-56d1-42a5-aed6-5ec08380ed57</div></td></tr><tr><td style="font-weight:bold;vertical-align:top;">http_host</td><td style="vertical-align:top;">:</td><td><div>127.0.0.1:8000</div></td></tr><tr><td style="font-weight:bold;vertical-align:top;">http_origin</td><td style="vertical-align:top;">:</td><td><div>http://127.0.0.1:8000</div></td></tr><tr><td style="font-weight:bold;vertical-align:top;">http_referer</td><td style="vertical-align:top;">:</td><td><div>http://127.0.0.1:8000/kurssihallinta/opiskelija/opiskelija_lisaa_kurssityo</div></td></tr><tr><td style="font-weight:bold;vertical-align:top;">http_user_agent</td><td style="vertical-align:top;">:</td><td><div>Mozilla/5.0 (X11; Linux i686) AppleWebKit/537.31 (KHTML, like Gecko) Chrome/26.0.1410.63 Safari/537.31</div></td></tr><tr><td style="font-weight:bold;vertical-align:top;">is_jython</td><td style="vertical-align:top;">:</td><td><div>False</div></td></tr><tr><td style="font-weight:bold;vertical-align:top;">is_pypy</td><td style="vertical-align:top;">:</td><td><div>False</div></td></tr><tr><td style="font-weight:bold;vertical-align:top;">is_source</td><td style="vertical-align:top;">:</td><td><div>True</div></td></tr><tr><td style="font-weight:bold;vertical-align:top;">local_hosts</td><td style="vertical-align:top;">:</td><td><div><table><tr><td><div>::ffff:127.0.0.1</div></td></tr><tr><td><div>::1</div></td></tr><tr><td><div>mka3830TG</div></td></tr><tr><td><div>localhost6.localdomain6</div></td></tr><tr><td><div>127.0.1.1</div></td></tr><tr><td><div>127.0.0.1</div></td></tr></table></div></td></tr><tr><td style="font-weight:bold;vertical-align:top;">path_info</td><td style="vertical-align:top;">:</td><td><div>/kurssihallinta/opiskelija/opiskelija_lisaa_kurssityo</div></td></tr><tr><td style="font-weight:bold;vertical-align:top;">query_string</td><td style="vertical-align:top;">:</td><td><div></div></td></tr><tr><td style="font-weight:bold;vertical-align:top;">remote_addr</td><td style="vertical-align:top;">:</td><td><div>127.0.0.1</div></td></tr><tr><td style="font-weight:bold;vertical-align:top;">remote_port</td><td style="vertical-align:top;">:</td><td><div>48873</div></td></tr><tr><td style="font-weight:bold;vertical-align:top;">request_method</td><td style="vertical-align:top;">:</td><td><div>POST</div></td></tr><tr><td style="font-weight:bold;vertical-align:top;">request_uri</td><td style="vertical-align:top;">:</td><td><div>/kurssihallinta/opiskelija/opiskelija_lisaa_kurssityo</div></td></tr><tr><td style="font-weight:bold;vertical-align:top;">script_name</td><td style="vertical-align:top;">:</td><td><div></div></td></tr><tr><td style="font-weight:bold;vertical-align:top;">server_name</td><td style="vertical-align:top;">:</td><td><div>mka3830TG</div></td></tr><tr><td style="font-weight:bold;vertical-align:top;">server_port</td><td style="vertical-align:top;">:</td><td><div>8000</div></td></tr><tr><td style="font-weight:bold;vertical-align:top;">server_protocol</td><td style="vertical-align:top;">:</td><td><div>HTTP/1.1</div></td></tr><tr><td style="font-weight:bold;vertical-align:top;">server_software</td><td style="vertical-align:top;">:</td><td><div>Rocket 1.2.6</div></td></tr><tr><td style="font-weight:bold;vertical-align:top;">web2py_path</td><td style="vertical-align:top;">:</td><td><div>/home/mka/web2py</div></td></tr><tr><td style="font-weight:bold;vertical-align:top;">web2py_version</td><td style="vertical-align:top;">:</td><td><div>2.9.5-stable+timestamp.2014.03.16.02.35.39</div></td></tr><tr><td style="font-weight:bold;vertical-align:top;">wsgi.errors</td><td style="vertical-align:top;">:</td><td><div>&lt;open file &#x27;&lt;stderr&gt;&#x27;, mode &#x27;w&#x27; at 0xb72d90d0&gt;</div></td></tr><tr><td style="font-weight:bold;vertical-align:top;">wsgi.file_wrapper</td><td style="vertical-align:top;">:</td><td><div>&lt;class wsgiref.util.FileWrapper at 0x91d411c&gt;</div></td></tr><tr><td style="font-weight:bold;vertical-align:top;">wsgi.input</td><td style="vertical-align:top;">:</td><td><div>&lt;socket._fileobject object at 0xa7aad12c&gt;</div></td></tr><tr><td style="font-weight:bold;vertical-align:top;">wsgi.multiprocess</td><td style="vertical-align:top;">:</td><td><div>False</div></td></tr><tr><td style="font-weight:bold;vertical-align:top;">wsgi.multithread</td><td style="vertical-align:top;">:</td><td><div>True</div></td></tr><tr><td style="font-weight:bold;vertical-align:top;">wsgi.run_once</td><td style="vertical-align:top;">:</td><td><div>False</div></td></tr><tr><td style="font-weight:bold;vertical-align:top;">wsgi.url_scheme</td><td style="vertical-align:top;">:</td><td><div>http</div></td></tr><tr><td style="font-weight:bold;vertical-align:top;">wsgi.version</td><td style="vertical-align:top;">:</td><td><div><table><tr><td><div>1</div></td></tr><tr><td><div>0</div></td></tr></table></div></td></tr><tr><td style="font-weight:bold;vertical-align:top;">wsgi_errors</td><td style="vertical-align:top;">:</td><td><div>&lt;open file &#x27;&lt;stderr&gt;&#x27;, mode &#x27;w&#x27; at 0xb72d90d0&gt;</div></td></tr><tr><td style="font-weight:bold;vertical-align:top;">wsgi_file_wrapper</td><td style="vertical-align:top;">:</td><td><div>&lt;class wsgiref.util.FileWrapper at 0x91d411c&gt;</div></td></tr><tr><td style="font-weight:bold;vertical-align:top;">wsgi_input</td><td style="vertical-align:top;">:</td><td><div>&lt;socket._fileobject object at 0xa7aad12c&gt;</div></td></tr><tr><td style="font-weight:bold;vertical-align:top;">wsgi_multiprocess</td><td style="vertical-align:top;">:</td><td><div>False</div></td></tr><tr><td style="font-weight:bold;vertical-align:top;">wsgi_multithread</td><td style="vertical-align:top;">:</td><td><div>True</div></td></tr><tr><td style="font-weight:bold;vertical-align:top;">wsgi_run_once</td><td style="vertical-align:top;">:</td><td><div>False</div></td></tr><tr><td style="font-weight:bold;vertical-align:top;">wsgi_url_scheme</td><td style="vertical-align:top;">:</td><td><div>http</div></td></tr><tr><td style="font-weight:bold;vertical-align:top;">wsgi_version</td><td style="vertical-align:top;">:</td><td><div><table><tr><td><div>1</div></td></tr><tr><td><div>0</div></td></tr></table></div></td></tr></table></div></td></tr><tr><td style="font-weight:bold;vertical-align:top;">extension</td><td style="vertical-align:top;">:</td><td><div>html</div></td></tr><tr><td style="font-weight:bold;vertical-align:top;">folder</td><td style="vertical-align:top;">:</td><td><div>/home/mka/web2py/applications/kurssihallinta/</div></td></tr><tr><td style="font-weight:bold;vertical-align:top;">function</td><td style="vertical-align:top;">:</td><td><div>opiskelija_lisaa_kurssityo</div></td></tr><tr><td style="font-weight:bold;vertical-align:top;">global_settings</td><td style="vertical-align:top;">:</td><td><div><table><tr><td style="font-weight:bold;vertical-align:top;">app_folders</td><td style="vertical-align:top;">:</td><td><div>set([&#x27;/home/mka/web2py/applications/welcome/&#x27;, &#x27;/home/mka/web2py/applications/admin/&#x27;, &#x27;/home/mka/web2py/applications/kurssihallinta/&#x27;])</div></td></tr><tr><td style="font-weight:bold;vertical-align:top;">applications_parent</td><td style="vertical-align:top;">:</td><td><div>/home/mka/web2py</div></td></tr><tr><td style="font-weight:bold;vertical-align:top;">cmd_args</td><td style="vertical-align:top;">:</td><td><div><table></table></div></td></tr><tr><td style="font-weight:bold;vertical-align:top;">cmd_options</td><td style="vertical-align:top;">:</td><td><div>&lt;Values at 0x92079cc: {&#x27;verbose&#x27;: False, &#x27;ip&#x27;: &#x27;127.0.0.1&#x27;, &#x27;debuglevel&#x27;: 30, &#x27;with_scheduler&#x27;: False, &#x27;ips&#x27;: [&#x27;::1&#x27;], &#x27;shutdown_timeout&#x27;: 5, &#x27;taskbar&#x27;: False, &#x27;with_coverage&#x27;: False, &#x27;port&#x27;: 8000, &#x27;maxthreads&#x27;: None, &#x27;softcron&#x27;: False, &#x27;server_name&#x27;: &#x27;mka3830TG&#x27;, &#x27;bpython&#x27;: False, &#x27;nogui&#x27;: False, &#x27;pid_filename&#x27;: &#x27;httpserver.pid&#x27;, &#x27;extcron&#x27;: False, &#x27;runcron&#x27;: False, &#x27;run_system_tests&#x27;: False, &#x27;test&#x27;: None, &#x27;folder&#x27;: &#x27;/home/mka/web2py&#x27;, &#x27;config&#x27;: &#x27;&#x27;, &#x27;minthreads&#x27;: None, &#x27;shell&#x27;: None, &#x27;run&#x27;: &#x27;&#x27;, &#x27;log_filename&#x27;: &#x27;httpserver.log&#x27;, &#x27;profiler_dir&#x27;: None, &#x27;args&#x27;: [&#x27;&#x27;], &#x27;socket_timeout&#x27;: 5, &#x27;ssl_ca_certificate&#x27;: None, &#x27;scheduler&#x27;: None, &#x27;interfaces&#x27;: None, &#x27;ssl_private_key&#x27;: &#x27;&#x27;, &#x27;scheduler_groups&#x27;: None, &#x27;password&#x27;: &#x27;&lt;ask&gt;&#x27;, &#x27;request_queue_size&#x27;: 5, &#x27;ssl_certificate&#x27;: &#x27;&#x27;, &#x27;cronjob&#x27;: False, &#x27;numthreads&#x27;: None, &#x27;quiet&#x27;: False, &#x27;import_models&#x27;: False, &#x27;timeout&#x27;: 10, &#x27;plain&#x27;: False, &#x27;nobanner&#x27;: False}&gt;</div></td></tr><tr><td style="font-weight:bold;vertical-align:top;">db_sessions</td><td style="vertical-align:top;">:</td><td><div>set([])</div></td></tr><tr><td style="font-weight:bold;vertical-align:top;">debugging</td><td style="vertical-align:top;">:</td><td><div>False</div></td></tr><tr><td style="font-weight:bold;vertical-align:top;">gluon_parent</td><td style="vertical-align:top;">:</td><td><div>/home/mka/web2py</div></td></tr><tr><td style="font-weight:bold;vertical-align:top;">is_jython</td><td style="vertical-align:top;">:</td><td><div>False</div></td></tr><tr><td style="font-weight:bold;vertical-align:top;">is_pypy</td><td style="vertical-align:top;">:</td><td><div>False</div></td></tr><tr><td style="font-weight:bold;vertical-align:top;">is_source</td><td style="vertical-align:top;">:</td><td><div>True</div></td></tr><tr><td style="font-weight:bold;vertical-align:top;">local_hosts</td><td style="vertical-align:top;">:</td><td><div><table><tr><td><div>::ffff:127.0.0.1</div></td></tr><tr><td><div>::1</div></td></tr><tr><td><div>mka3830TG</div></td></tr><tr><td><div>localhost6.localdomain6</div></td></tr><tr><td><div>127.0.1.1</div></td></tr><tr><td><div>127.0.0.1</div></td></tr></table></div></td></tr><tr><td style="font-weight:bold;vertical-align:top;">web2py_version</td><td style="vertical-align:top;">:</td><td><div>2.9.5-stable+timestamp.2014.03.16.02.35.39</div></td></tr></table></div></td></tr><tr><td style="font-weight:bold;vertical-align:top;">is_https</td><td style="vertical-align:top;">:</td><td><div>False</div></td></tr><tr><td style="font-weight:bold;vertical-align:top;">is_local</td><td style="vertical-align:top;">:</td><td><div>True</div></td></tr><tr><td style="font-weight:bold;vertical-align:top;">is_restful</td><td style="vertical-align:top;">:</td><td><div>False</div></td></tr><tr><td style="font-weight:bold;vertical-align:top;">now</td><td style="vertical-align:top;">:</td><td><div>datetime.datetime(2014, 6, 22, 16, 36, 11, 170984)</div></td></tr><tr><td style="font-weight:bold;vertical-align:top;">raw_args</td><td style="vertical-align:top;">:</td><td><div></div></td></tr><tr><td style="font-weight:bold;vertical-align:top;">raw_extension</td><td style="vertical-align:top;">:</td><td><div>None</div></td></tr><tr><td style="font-weight:bold;vertical-align:top;">url</td><td style="vertical-align:top;">:</td><td><div>/kurssihallinta/opiskelija/opiskelija_lisaa_kurssityo</div></td></tr><tr><td style="font-weight:bold;vertical-align:top;">utcnow</td><td style="vertical-align:top;">:</td><td><div>datetime.datetime(2014, 6, 22, 13, 36, 11, 171027)</div></td></tr><tr><td style="font-weight:bold;vertical-align:top;">uuid</td><td style="vertical-align:top;">:</td><td><div>kurssihallinta/127.0.0.1.2014-06-22.16-36-11.3ff66297-23fb-40ef-9a60-7382f52d6573</div></td></tr><tr><td style="font-weight:bold;vertical-align:top;">wsgi</td><td style="vertical-align:top;">:</td><td><div>&lt;gluon.main.LazyWSGI object at 0xa762110c&gt;</div></td></tr></table></div>'
tRp70
sS'frames'
p71
(lp72
(dp73
S'file'
p74
S'/home/mka/web2py/gluon/restricted.py'
p75
sS'dump'
p76
(dp77
S'environment'
p78
S"{'A': <class 'gluon.html.A'>, 'ANY_OF': <class 'gluon.validators.ANY_OF'>, 'Auth': <class 'gluon.tools.Auth'>, 'B': <class 'gluon.html.B'>, 'BEAUTIFY': <class 'gluon.html.BEAUTIFY'>, 'BODY': <class 'gluon.html.BODY'>, 'BR': <class 'gluon.html.BR'>, 'BUTTON': <class 'gluon.html.BUTTON'>, 'CAT': <class 'gluon.html.CAT'>, 'CENTER': <class 'gluon.html.CENTER'>, ...}"
p79
sS'ccode'
p80
S'<code object <module> at 0xa7628800, file "/home...urssihallinta/controllers/opiskelija.py", line 3>'
p81
ssS'lnum'
p82
I220
sS'lines'
p83
(dp84
I224
S'        # do not encapsulate (obfuscate) the original RestrictedError'
p85
sI215
S'    try:'
p86
sI216
S'        if isinstance(code, types.CodeType):'
p87
sI217
S'            ccode = code'
p88
sI218
S'        else:'
p89
sI219
S'            ccode = compile2(code, layer)'
p90
sI220
S'        exec ccode in environment'
p91
sI221
S'    except HTTP:'
p92
sI222
S'        raise'
p93
sI223
S'    except RestrictedError:'
p94
ssS'call'
p95
S"(code='# -*- coding: utf-8 -*-\\n#reload modules\\nfrom glu...ars=response._caller(opiskelija_lisaa_kurssityo)\\n', environment={'A': <class 'gluon.html.A'>, 'ANY_OF': <class 'gluon.validators.ANY_OF'>, 'Auth': <class 'gluon.tools.Auth'>, 'B': <class 'gluon.html.B'>, 'BEAUTIFY': <class 'gluon.html.BEAUTIFY'>, 'BODY': <class 'gluon.html.BODY'>, 'BR': <class 'gluon.html.BR'>, 'BUTTON': <class 'gluon.html.BUTTON'>, 'CAT': <class 'gluon.html.CAT'>, 'CENTER': <class 'gluon.html.CENTER'>, ...}, layer='/home/mka/web2py/applications/kurssihallinta/controllers/opiskelija.py')"
p96
sS'func'
p97
S'restricted'
p98
sa(dp99
g74
S'/home/mka/web2py/applications/kurssihallinta/controllers/opiskelija.py'
p100
sg76
(dp101
sg82
I95
sg83
(dp102
I84
S''
sI85
S'        #print "FVI",form.vars.id'
p103
sI86
S'        #form.vars.kurssi_id = \\'
p104
sI87
S'        #    (db(db.kurssityo.kurssi_id == db.kurssi.id).\\'
p105
sI88
S'        #         select(db.kurssityo.kurssi_id))'
p106
sI89
S''
sI90
S'        #db.kurssityo[form.vars.id] = dict(opiskelija_id=current_opiskelija)'
p107
sI91
S'        #db.kurssityo[form.vars.id] = dict(kurssi_id=1)'
p108
sI92
S"        redirect(URL('opiskelija_kaikki_kurssit'))"
p109
sI93
S'    return dict(form=form)'
p110
ssg95
S'()'
p111
sg97
S'<module>'
p112
sa(dp113
g74
S'/home/mka/web2py/gluon/globals.py'
p114
sg76
(dp115
S'self'
p116
S'undefined'
p117
sS'f'
S'<function opiskelija_lisaa_kurssityo>'
p118
ssg82
I385
sg83
(dp119
I384
S'        self._vars = None'
p120
sI385
S'        self._caller = lambda f: f()'
p121
sI386
S'        self._view_environment = None'
p122
sI387
S'        self._custom_commit = None'
p123
sI388
S'        self._custom_rollback = None'
p124
sI389
S''
sI380
S'        self.menu = []             # used by the default view layout'
p125
sI381
S'        self.files = []            # used by web2py_ajax.html'
p126
sI382
S'        self.generic_patterns = []  # patterns to allow generic views'
p127
sI383
S"        self.delimiters = ('{{', '}}')"
p128
ssg95
S'(f=<function opiskelija_lisaa_kurssityo>)'
p129
sg97
S'<lambda>'
p130
sa(dp131
g74
S'/home/mka/web2py/gluon/tools.py'
p132
sg76
(dp133
S'action'
p134
S'<function opiskelija_lisaa_kurssityo>'
p135
sS'a'
S'()'
p136
sS'b'
g21
ssg82
I3287
sg83
(dp137
I3282
S'                    flag = condition'
p138
sI3283
S'                if not flag:'
p139
sI3284
S'                    current.session.flash = self.messages.access_denied'
p140
sI3285
S'                    return call_or_redirect('
p141
sI3286
S'                        self.settings.on_failed_authorization)'
p142
sI3287
S'                return action(*a, **b)'
p143
sI3288
S'            f.__doc__ = action.__doc__'
p144
sI3289
S'            f.__name__ = action.__name__'
p145
sI3290
S'            f.__dict__.update(action.__dict__)'
p146
sI3291
S'            return f'
p147
ssg95
S'(*a=(), **b={})'
p148
sg97
S'f'
sa(dp149
g74
S'/home/mka/web2py/applications/kurssihallinta/controllers/opiskelija.py'
p150
sg76
(dp151
S'form.process'
p152
S'<bound method SQLFORM.process of <gluon.sqlhtml.SQLFORM object>>'
p153
sS').accepted'
p154
g117
sS'form'
p155
S'<gluon.sqlhtml.SQLFORM object>'
p156
ssg82
I66
sg83
(dp157
I64
S'    form.vars.kurssi_id = 1'
p158
sI65
S'    form.vars.opiskelija_1d = 1'
p159
sI66
S'    if form.process().accepted:'
p160
sI67
S'        #haetaan mille kurssille kurssity\xc3\xb6 kuuluu'
p161
sI68
S'        current_kurssi = \\'
p162
sI69
S'        db(db.kurssityo.kurssi_id == db.kurssi.id).select(db.kurssi.id)'
p163
sI70
S'        #lis\xc3\xa4t\xc3\xa4\xc3\xa4n tietokannan viimeiselle riville opiskelijan ja kurssin id'
p164
sI61
S"                   fields = ['kurssityon_nimi','palautettu'])"
p165
sI62
S'    #form = SQLFORM(db.kurssityo, comments=True)'
p166
sI63
S''
ssg95
S'()'
p167
sg97
S'opiskelija_lisaa_kurssityo'
p168
sa(dp169
g74
S'/home/mka/web2py/gluon/html.py'
p170
sg76
(dp171
S'self'
p172
S'<gluon.sqlhtml.SQLFORM object>'
p173
sS'self.validate'
p174
S'<bound method SQLFORM.validate of <gluon.sqlhtml.SQLFORM object>>'
p175
sS'kwargs'
p176
S"{'dbio': True}"
p177
ssg82
I2282
sg83
(dp178
I2277
S''
sI2278
S''
sI2279
S'        """'
p179
sI2280
S"        kwargs['dbio'] = kwargs.get('dbio', True)"
p180
sI2281
S'                                    # necessary for SQLHTML forms'
p181
sI2282
S'        self.validate(**kwargs)'
p182
sI2283
S'        return self'
p183
sI2284
S''
sI2285
S'    REDIRECT_JS = "window.location=\'%s\';return false"'
p184
sI2286
S''
ssg95
S"(self=<gluon.sqlhtml.SQLFORM object>, **kwargs={'dbio': True})"
p185
sg97
S'process'
p186
sa(dp187
g74
S'/home/mka/web2py/gluon/html.py'
p188
sg76
(dp189
S'self'
p190
S'<gluon.sqlhtml.SQLFORM object>'
p191
sS'self.accepts'
p192
S'<bound method SQLFORM.accepts of <gluon.sqlhtml.SQLFORM object>>'
p193
sS'kwargs'
p194
S"{'dbio': True, 'request_vars': <Storage {'_formkey': '5b42c688-7247-4496-9d32-d...formname': 'kurssityo/create', 'palautettu': ''}>, 'session': <Storage {'_formkey[kurssityo/create]': ['6bb612...gin]': ['814619cf-b716-43b7-bd9a-c599290dcca0']}>}"
p195
ssg82
I2219
sg83
(dp196
I2214
S"        for key in ('message_onsuccess', 'message_onfailure', 'onsuccess',"
p197
sI2215
S"                    'onfailure', 'next', 'message_onchange', 'onchange'):"
p198
sI2216
S'            if key in kwargs:'
p199
sI2217
S'                del kwargs[key]'
p200
sI2218
S''
sI2219
S'        if self.accepts(**kwargs):'
p201
sI2220
S"            if onsuccess == 'flash':"
p202
sI2221
S'                if next:'
p203
sI2222
S'                    current.session.flash = message_onsuccess'
p204
sI2223
S'                else:'
p205
ssg95
S"(self=<gluon.sqlhtml.SQLFORM object>, **kwargs={'dbio': True, 'request_vars': <Storage {'_formkey': '5b42c688-7247-4496-9d32-d...formname': 'kurssityo/create', 'palautettu': ''}>, 'session': <Storage {'_formkey[kurssityo/create]': ['6bb612...gin]': ['814619cf-b716-43b7-bd9a-c599290dcca0']}>})"
p206
sg97
S'validate'
p207
sa(dp208
g74
S'/home/mka/web2py/gluon/sqlhtml.py'
p209
sg76
(dp210
S'self.vars.id'
p211
S'None'
p212
sS'fields'
p213
S"{'kurssi_id': 1, 'kurssityon_nimi': 2, 'opiskelija_1d': 1, 'palautettu': ''}"
p214
sS'self'
p215
S'<gluon.sqlhtml.SQLFORM object>'
p216
sS'self.vars'
p217
S"<Storage {'kurssityon_nimi': '2', 'kurssi_id': 1, 'opiskelija_1d': 1, 'palautettu': ''}>"
p218
sS'self.table.insert'
p219
S'<bound method Table.insert of <Table kurssityo (...ettu,korjattu,arvosana,kurssi_id,opiskelija_id)>>'
p220
sS'self.table'
p221
S'<Table kurssityo (id,kurssityon_nimi,palautettu,korjattu,arvosana,kurssi_id,opiskelija_id)>'
p222
ssg82
I1592
sg83
(dp223
I1587
S'                    self.vars.id = self.record[self.id_field_name]'
p224
sI1588
S'                    if fields:'
p225
sI1589
S'                        self.table._db(self.table._id == self.record['
p226
sI1590
S'                                       self.id_field_name]).update(**fields)'
p227
sI1591
S'                else:'
p228
sI1592
S'                    self.vars.id = self.table.insert(**fields)'
p229
sI1593
S'        self.accepted = ret'
p230
sI1594
S'        return ret'
p231
sI1595
S''
sI1596
S'    AUTOTYPES = {'
p232
ssg95
S"(self=<gluon.sqlhtml.SQLFORM object>, request_vars=<Storage {'_formkey': '5b42c688-7247-4496-9d32-d...formname': 'kurssityo/create', 'palautettu': ''}>, session=<Storage {'_formkey[kurssityo/create]': ['6bb612...gin]': ['814619cf-b716-43b7-bd9a-c599290dcca0']}>, formname='kurssityo/create', keepvalues=False, onvalidation=None, dbio=True, hideerror=False, detect_record_change=False, **kwargs={})"
p233
sg97
S'accepts'
p234
sa(dp235
g74
S'/home/mka/web2py/gluon/dal.py'
p236
sg76
(dp237
S'self._listify'
p238
S'<bound method Table._listify of <Table kurssityo...ettu,korjattu,arvosana,kurssi_id,opiskelija_id)>>'
p239
sS'fields'
p240
S"{'kurssi_id': 1, 'kurssityon_nimi': 2, 'opiskelija_1d': 1, 'palautettu': ''}"
p241
sS'self'
p242
S'<Table kurssityo (id,kurssityon_nimi,palautettu,korjattu,arvosana,kurssi_id,opiskelija_id)>'
p243
sS'ret'
p244
g117
sS'self._db._adapter'
p245
S'<gluon.dal.SQLiteAdapter object>'
p246
sS'self._db._adapter.insert'
p247
S'<bound method SQLiteAdapter.insert of <gluon.dal.SQLiteAdapter object>>'
p248
sS'self._db'
p249
S'<DAL uri="sqlite://storage.sqlite">'
p250
ssg82
I9114
sg83
(dp251
I9109
S''
sI9110
S'    def insert(self, **fields):'
p252
sI9111
S'        fields = self._defaults(fields)'
p253
sI9112
S'        self._attempt_upload(fields)'
p254
sI9113
S'        if any(f(fields) for f in self._before_insert): return 0'
p255
sI9114
S'        ret =  self._db._adapter.insert(self, self._listify(fields))'
p256
sI9115
S'        if ret and self._after_insert:'
p257
sI9116
S'            fields = Row(fields)'
p258
sI9117
S'            [f(fields,ret) for f in self._after_insert]'
p259
sI9118
S'        return ret'
p260
ssg95
S"(self=<Table kurssityo (id,kurssityon_nimi,palautettu,korjattu,arvosana,kurssi_id,opiskelija_id)>, **fields={'kurssi_id': 1, 'kurssityon_nimi': 2, 'opiskelija_1d': 1, 'palautettu': ''})"
p261
sg97
S'insert'
p262
sa(dp263
g74
S'/home/mka/web2py/gluon/dal.py'
p264
sg76
(dp265
S'name'
p266
S"'opiskelija_1d'"
p267
ssg82
I9040
sg83
(dp268
I9035
S'        # store all fields passed as input in new_fields'
p269
sI9036
S'        for name in fields:'
p270
sI9037
S'            if not name in self.fields:'
p271
sI9038
S"                if name != 'id':"
p272
sI9039
S'                    raise SyntaxError('
p273
sI9040
S"                        'Field %s does not belong to the table' % name)"
p274
sI9041
S'            else:'
p275
sI9042
S'                field = self[name]'
p276
sI9043
S'                value = fields[name]'
p277
sI9044
S'                if field.filter_in:'
p278
ssg95
S"(self=<Table kurssityo (id,kurssityon_nimi,palautettu,korjattu,arvosana,kurssi_id,opiskelija_id)>, fields={'kurssi_id': 1, 'kurssityon_nimi': 2, 'opiskelija_1d': 1, 'palautettu': ''}, update=False)"
p279
sg97
S'_listify'
p280
sasS'pyver'
p281
S'Python 2.7.3: /usr/bin/python (prefix: /usr)'
p282
sS'session'
p283
g69
(S'ss\t\x00\x00<div><table><tr><td style="font-weight:bold;vertical-align:top;">auth</td><td style="vertical-align:top;">:</td><td><div><table><tr><td style="font-weight:bold;vertical-align:top;">expiration</td><td style="vertical-align:top;">:</td><td><div>3600</div></td></tr><tr><td style="font-weight:bold;vertical-align:top;">hmac_key</td><td style="vertical-align:top;">:</td><td><div>372b576c-a6bc-4d33-a434-5444acea1b8b</div></td></tr><tr><td style="font-weight:bold;vertical-align:top;">last_visit</td><td style="vertical-align:top;">:</td><td><div>datetime.datetime(2014, 6, 22, 16, 36, 2, 339908)</div></td></tr><tr><td style="font-weight:bold;vertical-align:top;">remember</td><td style="vertical-align:top;">:</td><td><div>False</div></td></tr><tr><td style="font-weight:bold;vertical-align:top;">user</td><td style="vertical-align:top;">:</td><td><div><table><tr><td style="font-weight:bold;vertical-align:top;">email</td><td style="vertical-align:top;">:</td><td><div>olli.oppilas@gmail.com</div></td></tr><tr><td style="font-weight:bold;vertical-align:top;">first_name</td><td style="vertical-align:top;">:</td><td><div>Olli</div></td></tr><tr><td style="font-weight:bold;vertical-align:top;">id</td><td style="vertical-align:top;">:</td><td><div>1L</div></td></tr><tr><td style="font-weight:bold;vertical-align:top;">last_name</td><td style="vertical-align:top;">:</td><td><div>Oppilas</div></td></tr><tr><td style="font-weight:bold;vertical-align:top;">registration_id</td><td style="vertical-align:top;">:</td><td><div></div></td></tr><tr><td style="font-weight:bold;vertical-align:top;">registration_key</td><td style="vertical-align:top;">:</td><td><div></div></td></tr><tr><td style="font-weight:bold;vertical-align:top;">reset_password_key</td><td style="vertical-align:top;">:</td><td><div></div></td></tr><tr><td style="font-weight:bold;vertical-align:top;">username</td><td style="vertical-align:top;">:</td><td><div>olli</div></td></tr></table></div></td></tr><tr><td style="font-weight:bold;vertical-align:top;">user_groups</td><td style="vertical-align:top;">:</td><td><div><table><tr><td style="font-weight:bold;vertical-align:top;">2</td><td style="vertical-align:top;">:</td><td><div>opiskelija</div></td></tr></table></div></td></tr></table></div></td></tr><tr><td style="font-weight:bold;vertical-align:top;">flash</td><td style="vertical-align:top;">:</td><td><div>None</div></td></tr></table></div>'
tRp284
sS'etype'
p285
S"<type 'exceptions.SyntaxError'>"
p286
sS'date'
p287
S'Sun Jun 22 16:36:11 2014'
p288
sS'response'
p289
g69
(S'sL2\x00\x00<div><table><tr><td style="font-weight:bold;vertical-align:top;">body</td><td style="vertical-align:top;">:</td><td><div>&lt;cStringIO.StringO object at 0xa79191a0&gt;</div></td></tr><tr><td style="font-weight:bold;vertical-align:top;">cookies</td><td style="vertical-align:top;">:</td><td><div><table><tr><td style="font-weight:bold;vertical-align:top;">session_id_kurssihallinta</td><td style="vertical-align:top;">:</td><td><div>127.0.0.1-0dd397d8-56d1-42a5-aed6-5ec08380ed57<table><tr><td style="font-weight:bold;vertical-align:top;">comment</td><td style="vertical-align:top;">:</td><td><div></div></td></tr><tr><td style="font-weight:bold;vertical-align:top;">domain</td><td style="vertical-align:top;">:</td><td><div></div></td></tr><tr><td style="font-weight:bold;vertical-align:top;">expires</td><td style="vertical-align:top;">:</td><td><div></div></td></tr><tr><td style="font-weight:bold;vertical-align:top;">httponly</td><td style="vertical-align:top;">:</td><td><div></div></td></tr><tr><td style="font-weight:bold;vertical-align:top;">max-age</td><td style="vertical-align:top;">:</td><td><div></div></td></tr><tr><td style="font-weight:bold;vertical-align:top;">path</td><td style="vertical-align:top;">:</td><td><div>/</div></td></tr><tr><td style="font-weight:bold;vertical-align:top;">secure</td><td style="vertical-align:top;">:</td><td><div></div></td></tr><tr><td style="font-weight:bold;vertical-align:top;">version</td><td style="vertical-align:top;">:</td><td><div></div></td></tr></table></div></td></tr></table></div></td></tr><tr><td style="font-weight:bold;vertical-align:top;">delimiters</td><td style="vertical-align:top;">:</td><td><div><table><tr><td><div>{{</div></td></tr><tr><td><div>}}</div></td></tr></table></div></td></tr><tr><td style="font-weight:bold;vertical-align:top;">files</td><td style="vertical-align:top;">:</td><td><div><table></table></div></td></tr><tr><td style="font-weight:bold;vertical-align:top;">flash</td><td style="vertical-align:top;">:</td><td><div></div></td></tr><tr><td style="font-weight:bold;vertical-align:top;">generic_patterns</td><td style="vertical-align:top;">:</td><td><div><table></table></div></td></tr><tr><td style="font-weight:bold;vertical-align:top;">google_analytics_id</td><td style="vertical-align:top;">:</td><td><div>None</div></td></tr><tr><td style="font-weight:bold;vertical-align:top;">headers</td><td style="vertical-align:top;">:</td><td><div><table><tr><td style="font-weight:bold;vertical-align:top;">X-Powered-By</td><td style="vertical-align:top;">:</td><td><div>web2py</div></td></tr></table></div></td></tr><tr><td style="font-weight:bold;vertical-align:top;">menu</td><td style="vertical-align:top;">:</td><td><div><table><tr><td><div><table><tr><td><div>Home</div></td></tr><tr><td><div>False</div></td></tr><tr><td><div>/kurssihallinta/default/index</div></td></tr><tr><td><div><table></table></div></td></tr></table></div></td></tr><tr><td><div><table><tr><td><div><span style="color:yellow">web2py</span></div></td></tr><tr><td><div>False</div></td></tr><tr><td><div>None</div></td></tr><tr><td><div><table><tr><td><div><table><tr><td><div>My Sites</div></td></tr><tr><td><div>False</div></td></tr><tr><td><div>/admin/default/site</div></td></tr></table></div></td></tr><tr><td><div><table><tr><td><div>This App</div></td></tr><tr><td><div>False</div></td></tr><tr><td><div>/admin/default/design/kurssihallinta</div></td></tr><tr><td><div>[(&lt;lazyT &#x27;Controller&#x27;&gt;, False, &#x27;/admin/default/edit/kurssihallinta/controllers/opiskelija.py&#x27;), (&lt;lazyT &#x27;View&#x27;&gt;, False, &#x27;/admin/default/edit/kurssihallinta/views/opiskelija/opiskelija_lisaa_kurssityo.html&#x27;), (&lt;lazyT &#x27;Layout&#x27;&gt;, False, &#x27;/admin/default/edit/kurssihallinta/views/layout.html&#x27;), (&lt;lazyT &#x27;Stylesheet&#x27;&gt;, False, &#x27;/admin/default/edit/kurssihallinta/static/css/web2py.css&#x27;), (&lt;lazyT &#x27;DB Model&#x27;&gt;, False, &#x27;/admin/default/edit/kurssihallinta/models/db.py&#x27;), (&lt;lazyT &#x27;Menu Model&#x27;&gt;, False, &#x27;/admin/default/edit/kurssihallinta/models/menu.py&#x27;), (&lt;lazyT &#x27;Database&#x27;&gt;, False, &#x27;/kurssihallinta/appadmin/index&#x27;), (&lt;lazyT &#x27;Errors&#x27;&gt;, False, &#x27;/admin/default/errors/kurssihallinta&#x27;), (&lt;lazyT &#x27;About&#x27;&gt;, False, &#x27;/admin/default/about/kurssihallinta&#x27;)]</div></td></tr></table></div></td></tr><tr><td><div><table><tr><td><div>web2py.com</div></td></tr><tr><td><div>False</div></td></tr><tr><td><div>http://www.web2py.com</div></td></tr><tr><td><div>[(&lt;lazyT &#x27;Download&#x27;&gt;, False, &#x27;http://www.web2py.com/examples/default/download&#x27;), (&lt;lazyT &#x27;Support&#x27;&gt;, False, &#x27;http://www.web2py.com/examples/default/support&#x27;), (&lt;lazyT &#x27;Demo&#x27;&gt;, False, &#x27;http://web2py.com/demo_admin&#x27;), (&lt;lazyT &#x27;Quick Examples&#x27;&gt;, False, &#x27;http://web2py.com/examples/default/examples&#x27;), (&lt;lazyT &#x27;FAQ&#x27;&gt;, False, &#x27;http://web2py.com/AlterEgo&#x27;), (&lt;lazyT &#x27;Videos&#x27;&gt;, False, &#x27;http://www.web2py.com/examples/default/videos/&#x27;), (&lt;lazyT &#x27;Free Applications&#x27;&gt;, False, &#x27;http://web2py.com/appliances&#x27;), (&lt;lazyT &#x27;Plugins&#x27;&gt;, False, &#x27;http://web2py.com/plugins&#x27;), (&lt;lazyT &#x27;Layouts&#x27;&gt;, False, &#x27;http://web2py.com/layouts&#x27;), (&lt;lazyT &#x27;Recipes&#x27;&gt;, False, &#x27;http://web2pyslices.com/&#x27;), (&lt;lazyT &#x27;Semantic&#x27;&gt;, False, &#x27;http://web2py.com/semantic&#x27;)]</div></td></tr></table></div></td></tr><tr><td><div><table><tr><td><div>Documentation</div></td></tr><tr><td><div>False</div></td></tr><tr><td><div>http://www.web2py.com/book</div></td></tr><tr><td><div>[(&lt;lazyT &#x27;Preface&#x27;&gt;, False, &#x27;http://www.web2py.com/book/default/chapter/00&#x27;), (&lt;lazyT &#x27;Introduction&#x27;&gt;, False, &#x27;http://www.web2py.com/book/default/chapter/01&#x27;), (&lt;lazyT &#x27;Python&#x27;&gt;, False, &#x27;http://www.web2py.com/book/default/chapter/02&#x27;), (&lt;lazyT &#x27;Overview&#x27;&gt;, False, &#x27;http://www.web2py.com/book/default/chapter/03&#x27;), (&lt;lazyT &#x27;The Core&#x27;&gt;, False, &#x27;http://www.web2py.com/book/default/chapter/04&#x27;), (&lt;lazyT &#x27;The Views&#x27;&gt;, False, &#x27;http://www.web2py.com/book/default/chapter/05&#x27;), (&lt;lazyT &#x27;Database&#x27;&gt;, False, &#x27;http://www.web2py.com/book/default/chapter/06&#x27;), (&lt;lazyT &#x27;Forms and Validators&#x27;&gt;, False, &#x27;http://www.web2py.com/book/default/chapter/07&#x27;), (&lt;lazyT &#x27;Email and SMS&#x27;&gt;, False, &#x27;http://www.web2py.com/book/default/chapter/08&#x27;), (&lt;lazyT &#x27;Access Control&#x27;&gt;, False, &#x27;http://www.web2py.com/book/default/chapter/09&#x27;), (&lt;lazyT &#x27;Services&#x27;&gt;, False, &#x27;http://www.web2py.com/book/default/chapter/10&#x27;), (&lt;lazyT &#x27;Ajax Recipes&#x27;&gt;, False, &#x27;http://www.web2py.com/book/default/chapter/11&#x27;), (&lt;lazyT &#x27;Components and Plugins&#x27;&gt;, False, &#x27;http://www.web2py.com/book/default/chapter/12&#x27;), (&lt;lazyT &#x27;Deployment Recipes&#x27;&gt;, False, &#x27;http://www.web2py.com/book/default/chapter/13&#x27;), (&lt;lazyT &#x27;Other Recipes&#x27;&gt;, False, &#x27;http://www.web2py.com/book/default/chapter/14&#x27;), (&lt;lazyT &#x27;Buy this book&#x27;&gt;, False, &#x27;http://stores.lulu.com/web2py&#x27;)]</div></td></tr></table></div></td></tr><tr><td><div><table><tr><td><div>Community</div></td></tr><tr><td><div>False</div></td></tr><tr><td><div>None</div></td></tr><tr><td><div>[(&lt;lazyT &#x27;Groups&#x27;&gt;, False, &#x27;http://www.web2py.com/examples/default/usergroups&#x27;), (&lt;lazyT &#x27;Twitter&#x27;&gt;, False, &#x27;http://twitter.com/web2py&#x27;), (&lt;lazyT &#x27;Live Chat&#x27;&gt;, False, &#x27;http://webchat.freenode.net/?channels=web2py&#x27;)]</div></td></tr></table></div></td></tr><tr><td><div><table><tr><td><div>Plugins</div></td></tr><tr><td><div>False</div></td></tr><tr><td><div>None</div></td></tr><tr><td><div>[(&#x27;plugin_wiki&#x27;, False, &#x27;http://web2py.com/examples/default/download&#x27;), (&lt;lazyT &#x27;Other Plugins&#x27;&gt;, False, &#x27;http://web2py.com/plugins&#x27;), (&lt;lazyT &#x27;Layout Plugins&#x27;&gt;, False, &#x27;http://web2py.com/layouts&#x27;)]</div></td></tr></table></div></td></tr></table></div></td></tr></table></div></td></tr></table></div></td></tr><tr><td style="font-weight:bold;vertical-align:top;">meta</td><td style="vertical-align:top;">:</td><td><div><table><tr><td style="font-weight:bold;vertical-align:top;">author</td><td style="vertical-align:top;">:</td><td><div>Your Name &lt;you@example.com&gt;</div></td></tr><tr><td style="font-weight:bold;vertical-align:top;">copyright</td><td style="vertical-align:top;">:</td><td><div>Copyright 2011</div></td></tr><tr><td style="font-weight:bold;vertical-align:top;">description</td><td style="vertical-align:top;">:</td><td><div>a cool new app</div></td></tr><tr><td style="font-weight:bold;vertical-align:top;">generator</td><td style="vertical-align:top;">:</td><td><div>Web2py Web Framework</div></td></tr><tr><td style="font-weight:bold;vertical-align:top;">keywords</td><td style="vertical-align:top;">:</td><td><div>web2py, python, framework</div></td></tr></table></div></td></tr><tr><td style="font-weight:bold;vertical-align:top;">models_to_run</td><td style="vertical-align:top;">:</td><td><div><table><tr><td><div>^\\w+\\.py$</div></td></tr><tr><td><div>^opiskelija/\\w+\\.py$</div></td></tr><tr><td><div>^opiskelija/opiskelija_lisaa_kurssityo/\\w+\\.py$</div></td></tr></table></div></td></tr><tr><td style="font-weight:bold;vertical-align:top;">postprocessing</td><td style="vertical-align:top;">:</td><td><div><table></table></div></td></tr><tr><td style="font-weight:bold;vertical-align:top;">session_client</td><td style="vertical-align:top;">:</td><td><div>127.0.0.1</div></td></tr><tr><td style="font-weight:bold;vertical-align:top;">session_cookie_compression_level</td><td style="vertical-align:top;">:</td><td><div>None</div></td></tr><tr><td style="font-weight:bold;vertical-align:top;">session_cookie_expires</td><td style="vertical-align:top;">:</td><td><div>None</div></td></tr><tr><td style="font-weight:bold;vertical-align:top;">session_cookie_key</td><td style="vertical-align:top;">:</td><td><div>None</div></td></tr><tr><td style="font-weight:bold;vertical-align:top;">session_data_name</td><td style="vertical-align:top;">:</td><td><div>session_data_kurssihallinta</div></td></tr><tr><td style="font-weight:bold;vertical-align:top;">session_file</td><td style="vertical-align:top;">:</td><td><div>&lt;open file &#x27;/home/mka/web2py/applications/kurssihallinta/sessions/127.0.0.1-0dd397d8-56d1-42a5-aed6-5ec08380ed57&#x27;, mode &#x27;rb+&#x27; at 0xa72202e0&gt;</div></td></tr><tr><td style="font-weight:bold;vertical-align:top;">session_filename</td><td style="vertical-align:top;">:</td><td><div>/home/mka/web2py/applications/kurssihallinta/sessions/127.0.0.1-0dd397d8-56d1-42a5-aed6-5ec08380ed57</div></td></tr><tr><td style="font-weight:bold;vertical-align:top;">session_hash</td><td style="vertical-align:top;">:</td><td><div>0692193ffe8217ab0bac5e2678aca3c2</div></td></tr><tr><td style="font-weight:bold;vertical-align:top;">session_id</td><td style="vertical-align:top;">:</td><td><div>127.0.0.1-0dd397d8-56d1-42a5-aed6-5ec08380ed57</div></td></tr><tr><td style="font-weight:bold;vertical-align:top;">session_id_name</td><td style="vertical-align:top;">:</td><td><div>session_id_kurssihallinta</div></td></tr><tr><td style="font-weight:bold;vertical-align:top;">session_locked</td><td style="vertical-align:top;">:</td><td><div>True</div></td></tr><tr><td style="font-weight:bold;vertical-align:top;">session_masterapp</td><td style="vertical-align:top;">:</td><td><div>kurssihallinta</div></td></tr><tr><td style="font-weight:bold;vertical-align:top;">session_new</td><td style="vertical-align:top;">:</td><td><div>False</div></td></tr><tr><td style="font-weight:bold;vertical-align:top;">session_storage_type</td><td style="vertical-align:top;">:</td><td><div>file</div></td></tr><tr><td style="font-weight:bold;vertical-align:top;">status</td><td style="vertical-align:top;">:</td><td><div>200</div></td></tr><tr><td style="font-weight:bold;vertical-align:top;">subtitle</td><td style="vertical-align:top;">:</td><td><div> </div></td></tr><tr><td style="font-weight:bold;vertical-align:top;">title</td><td style="vertical-align:top;">:</td><td><div>Kurssihallinta</div></td></tr><tr><td style="font-weight:bold;vertical-align:top;">view</td><td style="vertical-align:top;">:</td><td><div>opiskelija/opiskelija_lisaa_kurssityo.html</div></td></tr></table></div>'
tRp290
sS'locals'
p291
(dp292
S'fields'
p293
S"{'kurssi_id': 1, 'kurssityon_nimi': 2, 'opiskelija_1d': 1, 'palautettu': ''}"
p294
sS'self'
p295
S'<Table kurssityo (id,kurssityon_nimi,palautettu,korjattu,arvosana,kurssi_id,opiskelija_id)>'
p296
sS'new_fields'
p297
g21
sS'name'
p298
S"'opiskelija_1d'"
p299
sS'update'
p300
S'False'
p301
sssS'traceback'
p302
S'Traceback (most recent call last):\n  File "/home/mka/web2py/gluon/restricted.py", line 220, in restricted\n    exec ccode in environment\n  File "/home/mka/web2py/applications/kurssihallinta/controllers/opiskelija.py", line 95, in <module>\n  File "/home/mka/web2py/gluon/globals.py", line 385, in <lambda>\n    self._caller = lambda f: f()\n  File "/home/mka/web2py/gluon/tools.py", line 3287, in f\n    return action(*a, **b)\n  File "/home/mka/web2py/applications/kurssihallinta/controllers/opiskelija.py", line 66, in opiskelija_lisaa_kurssityo\n    if form.process().accepted:\n  File "/home/mka/web2py/gluon/html.py", line 2282, in process\n    self.validate(**kwargs)\n  File "/home/mka/web2py/gluon/html.py", line 2219, in validate\n    if self.accepts(**kwargs):\n  File "/home/mka/web2py/gluon/sqlhtml.py", line 1592, in accepts\n    self.vars.id = self.table.insert(**fields)\n  File "/home/mka/web2py/gluon/dal.py", line 9114, in insert\n    ret =  self._db._adapter.insert(self, self._listify(fields))\n  File "/home/mka/web2py/gluon/dal.py", line 9040, in _listify\n    \'Field %s does not belong to the table\' % name)\nSyntaxError: Field opiskelija_1d does not belong to the table\n'
p303
s.