(dp1
S'output'
p2
S"<class 'pysqlite2.dbapi2.OperationalError'> Cannot add a UNIQUE column"
p3
sS'layer'
p4
S'/home/mka/web2py/applications/kurssihallinta/models/db.py'
p5
sS'code'
p6
S'#Heroku begin\nfrom gluon.tools import Auth\n\ndef format_opiskelija(record):\n    """ opiskelijan esitys """\n    return \'%s %s\' % (record.opiskelija.user_id.last_name,\n                      record.opiskelija.user_id.last_name)\n\nif not request.env.web2py_runtime_gae:\n    ## if NOT running on Google App Engine use SQLite or other DB\n    try: db = DAL(os.environ.get(\'DATABASE_URL\'))\n    except: db = DAL(\'sqlite://storage.sqlite\')\n#Heroku end\nauth = Auth(db)\nauth.define_tables(username=True)\n\ndb.define_table(\'opettaja\',\n   Field(\'user_id\', \'reference auth_user\'),\n                format=lambda r: \'%s %s\' \\\n                    % (db.auth_user[r.user_id].last_name,\n                       db.auth_user[r.user_id].first_name))\n#   format = \'%(id)s\')\n#   format=lambda r: \'%s %s\' % (db.auth_user[r.auth_user].first_name,db.auth_user[r.auth_user].last_name))\n\ndb.define_table(\'opiskelija\',\n                Field(\'user_id\', \'reference auth_user\'),\n#                format = \'%(id)s\')\n                format=lambda r: \'%s %s\' \\\n                    % (db.auth_user[r.user_id].last_name,\n                       db.auth_user[r.user_id].first_name))\n#   format = \'%(user_id.first_name)s %(user_id.last_name)s\')\n#   format = \'%(auth_user.first_name)s\')\n\ndb.define_table(\'kurssi\',\n   Field(\'kurssin_nimi\', unique=True),\n   Field(\'opettaja_id\', \'reference opettaja\'),\n   format = \'%(kurssin_nimi)s\')\n\n#liitostaulu, monen suhde moneen oppilaan ja kurssin v\xc3\xa4lill\xc3\xa4\n#db.define_table(\'opiskelijatKursseilla\',\n#   Field(\'opiskelija_id\', \'reference opiskelija\'),\n#   Field(\'kurssi_id\', \'reference kurssi\'),\n#   format = \'%(title)s\')\n\ndb.define_table(\'kurssityon_nimi\',\n   Field(\'tyon_nimi\'),\n   Field(\'kurssi_id\',\'reference kurssi\'),\n   Field(\'opettaja_id\', \'reference opettaja\'),\n   format = \'%(tyon_nimi)s\')\n\n#sis\xc3\xa4lt\xc3\xa4\xc3\xa4 kurssity\xc3\xb6n nimen, idea ett\xc3\xa4 opiskelija voi valita valikosta\n\ndb.define_table(\'kurssityo\',\n   Field(\'nimi_id\',\'reference kurssityon_nimi\'),\n   Field(\'palautettu\', \'upload\'),\n   Field(\'korjattu\', \'upload\'),\n   Field(\'arvosana\'),\n   Field(\'kurssi_id\', \'reference kurssi\'),\n   Field(\'opiskelija_id\', \'reference opiskelija\'),\n   format=lambda r: \'%s\' \\\n       % (db.kurssityon_nimi[r.nimi_id].title)\n   )\n#   format = \'%(nimi)s\')\n\n#db.tyo.title.requires = IS_NOT_IN_DB(db, db.tyo.title)\n#db.post.image_id.requires = IS_IN_DB(db, db.image.id, \'%(title)s\')\n#db.post.author.requires = IS_NOT_EMPTY()\n#db.post.email.requires = IS_EMAIL()\n#db.post.body.requires = IS_NOT_EMPTY()\n\n#db.post.image_id.writable = db.post.image_id.readable = False\n'
p7
sS'snapshot'
p8
(dp9
S'exception'
p10
(dp11
S'__module__'
p12
S"'pysqlite2.dbapi2'"
p13
sS'__getslice__'
p14
S"<method-wrapper '__getslice__' of OperationalError object>"
p15
sS'__str__'
p16
S"<method-wrapper '__str__' of OperationalError object>"
p17
sS'__reduce__'
p18
S'<built-in method __reduce__ of OperationalError object>'
p19
sS'__dict__'
p20
S'{}'
p21
sS'__sizeof__'
p22
S'<built-in method __sizeof__ of OperationalError object>'
p23
sS'__weakref__'
p24
S'None'
p25
sS'__init__'
p26
S"<method-wrapper '__init__' of OperationalError object>"
p27
sS'__setattr__'
p28
S"<method-wrapper '__setattr__' of OperationalError object>"
p29
sS'__reduce_ex__'
p30
S'<built-in method __reduce_ex__ of OperationalError object>'
p31
sS'__new__'
p32
S'<built-in method __new__ of type object>'
p33
sS'__format__'
p34
S'<built-in method __format__ of OperationalError object>'
p35
sS'__class__'
p36
S"<class 'pysqlite2.dbapi2.OperationalError'>"
p37
sS'__doc__'
p38
S'None'
p39
sS'__getitem__'
p40
S"<method-wrapper '__getitem__' of OperationalError object>"
p41
sS'__setstate__'
p42
S'<built-in method __setstate__ of OperationalError object>'
p43
sS'__getattribute__'
p44
S"<method-wrapper '__getattribute__' of OperationalError object>"
p45
sS'args'
p46
S"('Cannot add a UNIQUE column',)"
p47
sS'__subclasshook__'
p48
S'<built-in method __subclasshook__ of type object>'
p49
sS'__unicode__'
p50
S'<built-in method __unicode__ of OperationalError object>'
p51
sS'__delattr__'
p52
S"<method-wrapper '__delattr__' of OperationalError object>"
p53
sS'__repr__'
p54
S"<method-wrapper '__repr__' of OperationalError object>"
p55
sS'__hash__'
p56
S"<method-wrapper '__hash__' of OperationalError object>"
p57
ssS'evalue'
p58
S'Cannot add a UNIQUE column'
p59
sS'request'
p60
cgluon.html
XML_unpickle
p61
(S'sAb\x00\x00<div><table><tr><td style="font-weight:bold;vertical-align:top;">ajax</td><td style="vertical-align:top;">:</td><td><div>False</div></td></tr><tr><td style="font-weight:bold;vertical-align:top;">application</td><td style="vertical-align:top;">:</td><td><div>kurssihallinta</div></td></tr><tr><td style="font-weight:bold;vertical-align:top;">args</td><td style="vertical-align:top;">:</td><td><div><table></table></div></td></tr><tr><td style="font-weight:bold;vertical-align:top;">cid</td><td style="vertical-align:top;">:</td><td><div>None</div></td></tr><tr><td style="font-weight:bold;vertical-align:top;">client</td><td style="vertical-align:top;">:</td><td><div>127.0.0.1</div></td></tr><tr><td style="font-weight:bold;vertical-align:top;">controller</td><td style="vertical-align:top;">:</td><td><div>opettaja</div></td></tr><tr><td style="font-weight:bold;vertical-align:top;">cookies</td><td style="vertical-align:top;">:</td><td><div><table><tr><td style="font-weight:bold;vertical-align:top;">session_id_admin</td><td style="vertical-align:top;">:</td><td><div>127.0.0.1-0b19514a-efb7-49d8-8273-037f2717028e<table><tr><td style="font-weight:bold;vertical-align:top;">comment</td><td style="vertical-align:top;">:</td><td><div></div></td></tr><tr><td style="font-weight:bold;vertical-align:top;">domain</td><td style="vertical-align:top;">:</td><td><div></div></td></tr><tr><td style="font-weight:bold;vertical-align:top;">expires</td><td style="vertical-align:top;">:</td><td><div></div></td></tr><tr><td style="font-weight:bold;vertical-align:top;">httponly</td><td style="vertical-align:top;">:</td><td><div></div></td></tr><tr><td style="font-weight:bold;vertical-align:top;">max-age</td><td style="vertical-align:top;">:</td><td><div></div></td></tr><tr><td style="font-weight:bold;vertical-align:top;">path</td><td style="vertical-align:top;">:</td><td><div></div></td></tr><tr><td style="font-weight:bold;vertical-align:top;">secure</td><td style="vertical-align:top;">:</td><td><div></div></td></tr><tr><td style="font-weight:bold;vertical-align:top;">version</td><td style="vertical-align:top;">:</td><td><div></div></td></tr></table></div></td></tr><tr><td style="font-weight:bold;vertical-align:top;">session_id_kurssihallinta</td><td style="vertical-align:top;">:</td><td><div>127.0.0.1-d6a9b865-1c8b-4a0d-9255-572cd81738d5<table><tr><td style="font-weight:bold;vertical-align:top;">comment</td><td style="vertical-align:top;">:</td><td><div></div></td></tr><tr><td style="font-weight:bold;vertical-align:top;">domain</td><td style="vertical-align:top;">:</td><td><div></div></td></tr><tr><td style="font-weight:bold;vertical-align:top;">expires</td><td style="vertical-align:top;">:</td><td><div></div></td></tr><tr><td style="font-weight:bold;vertical-align:top;">httponly</td><td style="vertical-align:top;">:</td><td><div></div></td></tr><tr><td style="font-weight:bold;vertical-align:top;">max-age</td><td style="vertical-align:top;">:</td><td><div></div></td></tr><tr><td style="font-weight:bold;vertical-align:top;">path</td><td style="vertical-align:top;">:</td><td><div></div></td></tr><tr><td style="font-weight:bold;vertical-align:top;">secure</td><td style="vertical-align:top;">:</td><td><div></div></td></tr><tr><td style="font-weight:bold;vertical-align:top;">version</td><td style="vertical-align:top;">:</td><td><div></div></td></tr></table></div></td></tr><tr><td style="font-weight:bold;vertical-align:top;">session_id_test</td><td style="vertical-align:top;">:</td><td><div>127.0.0.1-260413d5-f3c8-4613-90ee-c2f8cf0adb4f<table><tr><td style="font-weight:bold;vertical-align:top;">comment</td><td style="vertical-align:top;">:</td><td><div></div></td></tr><tr><td style="font-weight:bold;vertical-align:top;">domain</td><td style="vertical-align:top;">:</td><td><div></div></td></tr><tr><td style="font-weight:bold;vertical-align:top;">expires</td><td style="vertical-align:top;">:</td><td><div></div></td></tr><tr><td style="font-weight:bold;vertical-align:top;">httponly</td><td style="vertical-align:top;">:</td><td><div></div></td></tr><tr><td style="font-weight:bold;vertical-align:top;">max-age</td><td style="vertical-align:top;">:</td><td><div></div></td></tr><tr><td style="font-weight:bold;vertical-align:top;">path</td><td style="vertical-align:top;">:</td><td><div></div></td></tr><tr><td style="font-weight:bold;vertical-align:top;">secure</td><td style="vertical-align:top;">:</td><td><div></div></td></tr><tr><td style="font-weight:bold;vertical-align:top;">version</td><td style="vertical-align:top;">:</td><td><div></div></td></tr></table></div></td></tr><tr><td style="font-weight:bold;vertical-align:top;">session_id_welcome</td><td style="vertical-align:top;">:</td><td><div>127.0.0.1-206e3f2c-ca9e-4893-90e9-abd7966a25bf<table><tr><td style="font-weight:bold;vertical-align:top;">comment</td><td style="vertical-align:top;">:</td><td><div></div></td></tr><tr><td style="font-weight:bold;vertical-align:top;">domain</td><td style="vertical-align:top;">:</td><td><div></div></td></tr><tr><td style="font-weight:bold;vertical-align:top;">expires</td><td style="vertical-align:top;">:</td><td><div></div></td></tr><tr><td style="font-weight:bold;vertical-align:top;">httponly</td><td style="vertical-align:top;">:</td><td><div></div></td></tr><tr><td style="font-weight:bold;vertical-align:top;">max-age</td><td style="vertical-align:top;">:</td><td><div></div></td></tr><tr><td style="font-weight:bold;vertical-align:top;">path</td><td style="vertical-align:top;">:</td><td><div></div></td></tr><tr><td style="font-weight:bold;vertical-align:top;">secure</td><td style="vertical-align:top;">:</td><td><div></div></td></tr><tr><td style="font-weight:bold;vertical-align:top;">version</td><td style="vertical-align:top;">:</td><td><div></div></td></tr></table></div></td></tr></table></div></td></tr><tr><td style="font-weight:bold;vertical-align:top;">env</td><td style="vertical-align:top;">:</td><td><div><table><tr><td style="font-weight:bold;vertical-align:top;">HTTP_ACCEPT</td><td style="vertical-align:top;">:</td><td><div>text/html,application/xhtml+xml,application/xml;q=0.9,*/*;q=0.8</div></td></tr><tr><td style="font-weight:bold;vertical-align:top;">HTTP_ACCEPT_CHARSET</td><td style="vertical-align:top;">:</td><td><div>ISO-8859-1,utf-8;q=0.7,*;q=0.3</div></td></tr><tr><td style="font-weight:bold;vertical-align:top;">HTTP_ACCEPT_ENCODING</td><td style="vertical-align:top;">:</td><td><div>gzip,deflate,sdch</div></td></tr><tr><td style="font-weight:bold;vertical-align:top;">HTTP_ACCEPT_LANGUAGE</td><td style="vertical-align:top;">:</td><td><div>en-US,en;q=0.8</div></td></tr><tr><td style="font-weight:bold;vertical-align:top;">HTTP_CONNECTION</td><td style="vertical-align:top;">:</td><td><div>keep-alive</div></td></tr><tr><td style="font-weight:bold;vertical-align:top;">HTTP_COOKIE</td><td style="vertical-align:top;">:</td><td><div>session_id_welcome=127.0.0.1-206e3f2c-ca9e-4893-90e9-abd7966a25bf; session_id_test=127.0.0.1-260413d5-f3c8-4613-90ee-c2f8cf0adb4f; session_id_admin=127.0.0.1-0b19514a-efb7-49d8-8273-037f2717028e; session_id_kurssihallinta=127.0.0.1-d6a9b865-1c8b-4a0d-9255-572cd81738d5</div></td></tr><tr><td style="font-weight:bold;vertical-align:top;">HTTP_HOST</td><td style="vertical-align:top;">:</td><td><div>127.0.0.1:8000</div></td></tr><tr><td style="font-weight:bold;vertical-align:top;">HTTP_REFERER</td><td style="vertical-align:top;">:</td><td><div>http://127.0.0.1:8000/kurssihallinta/opettaja/kurssitoiden_otsikot?kurssi_ids=10</div></td></tr><tr><td style="font-weight:bold;vertical-align:top;">HTTP_USER_AGENT</td><td style="vertical-align:top;">:</td><td><div>Mozilla/5.0 (X11; Linux i686) AppleWebKit/537.31 (KHTML, like Gecko) Chrome/26.0.1410.63 Safari/537.31</div></td></tr><tr><td style="font-weight:bold;vertical-align:top;">PATH_INFO</td><td style="vertical-align:top;">:</td><td><div>/kurssihallinta/opettaja/opettaja_alkusivu</div></td></tr><tr><td style="font-weight:bold;vertical-align:top;">QUERY_STRING</td><td style="vertical-align:top;">:</td><td><div></div></td></tr><tr><td style="font-weight:bold;vertical-align:top;">REMOTE_ADDR</td><td style="vertical-align:top;">:</td><td><div>127.0.0.1</div></td></tr><tr><td style="font-weight:bold;vertical-align:top;">REMOTE_PORT</td><td style="vertical-align:top;">:</td><td><div>52627</div></td></tr><tr><td style="font-weight:bold;vertical-align:top;">REQUEST_METHOD</td><td style="vertical-align:top;">:</td><td><div>GET</div></td></tr><tr><td style="font-weight:bold;vertical-align:top;">SCRIPT_NAME</td><td style="vertical-align:top;">:</td><td><div></div></td></tr><tr><td style="font-weight:bold;vertical-align:top;">SERVER_NAME</td><td style="vertical-align:top;">:</td><td><div>mka3830TG</div></td></tr><tr><td style="font-weight:bold;vertical-align:top;">SERVER_PORT</td><td style="vertical-align:top;">:</td><td><div>8000</div></td></tr><tr><td style="font-weight:bold;vertical-align:top;">SERVER_PROTOCOL</td><td style="vertical-align:top;">:</td><td><div>HTTP/1.1</div></td></tr><tr><td style="font-weight:bold;vertical-align:top;">SERVER_SOFTWARE</td><td style="vertical-align:top;">:</td><td><div>Rocket 1.2.6</div></td></tr><tr><td style="font-weight:bold;vertical-align:top;">app_folders</td><td style="vertical-align:top;">:</td><td><div>set([&#x27;/home/mka/web2py/applications/welcome/&#x27;, &#x27;/home/mka/web2py/applications/kurssihallinta/&#x27;, &#x27;/home/mka/web2py/applications/admin/&#x27;, &#x27;/home/mka/web2py/applications/test/&#x27;, &#x27;/home/mka/web2py/applications/manage/&#x27;, &#x27;/home/mka/web2py/applications/examples/&#x27;])</div></td></tr><tr><td style="font-weight:bold;vertical-align:top;">applications_parent</td><td style="vertical-align:top;">:</td><td><div>/home/mka/web2py</div></td></tr><tr><td style="font-weight:bold;vertical-align:top;">cmd_args</td><td style="vertical-align:top;">:</td><td><div><table></table></div></td></tr><tr><td style="font-weight:bold;vertical-align:top;">cmd_options</td><td style="vertical-align:top;">:</td><td><div>&lt;Values at 0xa1c99cc: {&#x27;verbose&#x27;: False, &#x27;ip&#x27;: &#x27;127.0.0.1&#x27;, &#x27;debuglevel&#x27;: 30, &#x27;with_scheduler&#x27;: False, &#x27;ips&#x27;: [&#x27;::1&#x27;], &#x27;shutdown_timeout&#x27;: 5, &#x27;taskbar&#x27;: False, &#x27;with_coverage&#x27;: False, &#x27;port&#x27;: 8000, &#x27;maxthreads&#x27;: None, &#x27;softcron&#x27;: False, &#x27;server_name&#x27;: &#x27;mka3830TG&#x27;, &#x27;bpython&#x27;: False, &#x27;nogui&#x27;: False, &#x27;pid_filename&#x27;: &#x27;httpserver.pid&#x27;, &#x27;extcron&#x27;: False, &#x27;runcron&#x27;: False, &#x27;run_system_tests&#x27;: False, &#x27;test&#x27;: None, &#x27;folder&#x27;: &#x27;/home/mka/web2py&#x27;, &#x27;config&#x27;: &#x27;&#x27;, &#x27;minthreads&#x27;: None, &#x27;shell&#x27;: None, &#x27;run&#x27;: &#x27;&#x27;, &#x27;log_filename&#x27;: &#x27;httpserver.log&#x27;, &#x27;profiler_dir&#x27;: None, &#x27;args&#x27;: [&#x27;&#x27;], &#x27;socket_timeout&#x27;: 5, &#x27;ssl_ca_certificate&#x27;: None, &#x27;scheduler&#x27;: None, &#x27;interfaces&#x27;: None, &#x27;ssl_private_key&#x27;: &#x27;&#x27;, &#x27;scheduler_groups&#x27;: None, &#x27;password&#x27;: &#x27;&lt;ask&gt;&#x27;, &#x27;request_queue_size&#x27;: 5, &#x27;ssl_certificate&#x27;: &#x27;&#x27;, &#x27;cronjob&#x27;: False, &#x27;numthreads&#x27;: None, &#x27;quiet&#x27;: False, &#x27;import_models&#x27;: False, &#x27;timeout&#x27;: 10, &#x27;plain&#x27;: False, &#x27;nobanner&#x27;: False}&gt;</div></td></tr><tr><td style="font-weight:bold;vertical-align:top;">db_sessions</td><td style="vertical-align:top;">:</td><td><div>set([])</div></td></tr><tr><td style="font-weight:bold;vertical-align:top;">debugging</td><td style="vertical-align:top;">:</td><td><div>True</div></td></tr><tr><td style="font-weight:bold;vertical-align:top;">gluon_parent</td><td style="vertical-align:top;">:</td><td><div>/home/mka/web2py</div></td></tr><tr><td style="font-weight:bold;vertical-align:top;">http_accept</td><td style="vertical-align:top;">:</td><td><div>text/html,application/xhtml+xml,application/xml;q=0.9,*/*;q=0.8</div></td></tr><tr><td style="font-weight:bold;vertical-align:top;">http_accept_charset</td><td style="vertical-align:top;">:</td><td><div>ISO-8859-1,utf-8;q=0.7,*;q=0.3</div></td></tr><tr><td style="font-weight:bold;vertical-align:top;">http_accept_encoding</td><td style="vertical-align:top;">:</td><td><div>gzip,deflate,sdch</div></td></tr><tr><td style="font-weight:bold;vertical-align:top;">http_accept_language</td><td style="vertical-align:top;">:</td><td><div>en-US,en;q=0.8</div></td></tr><tr><td style="font-weight:bold;vertical-align:top;">http_connection</td><td style="vertical-align:top;">:</td><td><div>keep-alive</div></td></tr><tr><td style="font-weight:bold;vertical-align:top;">http_cookie</td><td style="vertical-align:top;">:</td><td><div>session_id_welcome=127.0.0.1-206e3f2c-ca9e-4893-90e9-abd7966a25bf; session_id_test=127.0.0.1-260413d5-f3c8-4613-90ee-c2f8cf0adb4f; session_id_admin=127.0.0.1-0b19514a-efb7-49d8-8273-037f2717028e; session_id_kurssihallinta=127.0.0.1-d6a9b865-1c8b-4a0d-9255-572cd81738d5</div></td></tr><tr><td style="font-weight:bold;vertical-align:top;">http_host</td><td style="vertical-align:top;">:</td><td><div>127.0.0.1:8000</div></td></tr><tr><td style="font-weight:bold;vertical-align:top;">http_referer</td><td style="vertical-align:top;">:</td><td><div>http://127.0.0.1:8000/kurssihallinta/opettaja/kurssitoiden_otsikot?kurssi_ids=10</div></td></tr><tr><td style="font-weight:bold;vertical-align:top;">http_user_agent</td><td style="vertical-align:top;">:</td><td><div>Mozilla/5.0 (X11; Linux i686) AppleWebKit/537.31 (KHTML, like Gecko) Chrome/26.0.1410.63 Safari/537.31</div></td></tr><tr><td style="font-weight:bold;vertical-align:top;">is_jython</td><td style="vertical-align:top;">:</td><td><div>False</div></td></tr><tr><td style="font-weight:bold;vertical-align:top;">is_pypy</td><td style="vertical-align:top;">:</td><td><div>False</div></td></tr><tr><td style="font-weight:bold;vertical-align:top;">is_source</td><td style="vertical-align:top;">:</td><td><div>True</div></td></tr><tr><td style="font-weight:bold;vertical-align:top;">local_hosts</td><td style="vertical-align:top;">:</td><td><div><table><tr><td><div>::ffff:127.0.0.1</div></td></tr><tr><td><div>::1</div></td></tr><tr><td><div>mka3830TG</div></td></tr><tr><td><div>localhost6.localdomain6</div></td></tr><tr><td><div>127.0.1.1</div></td></tr><tr><td><div>127.0.0.1</div></td></tr></table></div></td></tr><tr><td style="font-weight:bold;vertical-align:top;">path_info</td><td style="vertical-align:top;">:</td><td><div>/kurssihallinta/opettaja/opettaja_alkusivu</div></td></tr><tr><td style="font-weight:bold;vertical-align:top;">query_string</td><td style="vertical-align:top;">:</td><td><div></div></td></tr><tr><td style="font-weight:bold;vertical-align:top;">remote_addr</td><td style="vertical-align:top;">:</td><td><div>127.0.0.1</div></td></tr><tr><td style="font-weight:bold;vertical-align:top;">remote_port</td><td style="vertical-align:top;">:</td><td><div>52627</div></td></tr><tr><td style="font-weight:bold;vertical-align:top;">request_method</td><td style="vertical-align:top;">:</td><td><div>GET</div></td></tr><tr><td style="font-weight:bold;vertical-align:top;">request_uri</td><td style="vertical-align:top;">:</td><td><div>/kurssihallinta/opettaja/opettaja_alkusivu</div></td></tr><tr><td style="font-weight:bold;vertical-align:top;">script_name</td><td style="vertical-align:top;">:</td><td><div></div></td></tr><tr><td style="font-weight:bold;vertical-align:top;">server_name</td><td style="vertical-align:top;">:</td><td><div>mka3830TG</div></td></tr><tr><td style="font-weight:bold;vertical-align:top;">server_port</td><td style="vertical-align:top;">:</td><td><div>8000</div></td></tr><tr><td style="font-weight:bold;vertical-align:top;">server_protocol</td><td style="vertical-align:top;">:</td><td><div>HTTP/1.1</div></td></tr><tr><td style="font-weight:bold;vertical-align:top;">server_software</td><td style="vertical-align:top;">:</td><td><div>Rocket 1.2.6</div></td></tr><tr><td style="font-weight:bold;vertical-align:top;">web2py_path</td><td style="vertical-align:top;">:</td><td><div>/home/mka/web2py</div></td></tr><tr><td style="font-weight:bold;vertical-align:top;">web2py_version</td><td style="vertical-align:top;">:</td><td><div>2.9.5-stable+timestamp.2014.03.16.02.35.39</div></td></tr><tr><td style="font-weight:bold;vertical-align:top;">wsgi.errors</td><td style="vertical-align:top;">:</td><td><div>&lt;open file &#x27;&lt;stderr&gt;&#x27;, mode &#x27;w&#x27; at 0xb72a00d0&gt;</div></td></tr><tr><td style="font-weight:bold;vertical-align:top;">wsgi.file_wrapper</td><td style="vertical-align:top;">:</td><td><div>&lt;class wsgiref.util.FileWrapper at 0xa19611c&gt;</div></td></tr><tr><td style="font-weight:bold;vertical-align:top;">wsgi.input</td><td style="vertical-align:top;">:</td><td><div>&lt;socket._fileobject object at 0xa1d83ec&gt;</div></td></tr><tr><td style="font-weight:bold;vertical-align:top;">wsgi.multiprocess</td><td style="vertical-align:top;">:</td><td><div>False</div></td></tr><tr><td style="font-weight:bold;vertical-align:top;">wsgi.multithread</td><td style="vertical-align:top;">:</td><td><div>True</div></td></tr><tr><td style="font-weight:bold;vertical-align:top;">wsgi.run_once</td><td style="vertical-align:top;">:</td><td><div>False</div></td></tr><tr><td style="font-weight:bold;vertical-align:top;">wsgi.url_scheme</td><td style="vertical-align:top;">:</td><td><div>http</div></td></tr><tr><td style="font-weight:bold;vertical-align:top;">wsgi.version</td><td style="vertical-align:top;">:</td><td><div><table><tr><td><div>1</div></td></tr><tr><td><div>0</div></td></tr></table></div></td></tr><tr><td style="font-weight:bold;vertical-align:top;">wsgi_errors</td><td style="vertical-align:top;">:</td><td><div>&lt;open file &#x27;&lt;stderr&gt;&#x27;, mode &#x27;w&#x27; at 0xb72a00d0&gt;</div></td></tr><tr><td style="font-weight:bold;vertical-align:top;">wsgi_file_wrapper</td><td style="vertical-align:top;">:</td><td><div>&lt;class wsgiref.util.FileWrapper at 0xa19611c&gt;</div></td></tr><tr><td style="font-weight:bold;vertical-align:top;">wsgi_input</td><td style="vertical-align:top;">:</td><td><div>&lt;socket._fileobject object at 0xa1d83ec&gt;</div></td></tr><tr><td style="font-weight:bold;vertical-align:top;">wsgi_multiprocess</td><td style="vertical-align:top;">:</td><td><div>False</div></td></tr><tr><td style="font-weight:bold;vertical-align:top;">wsgi_multithread</td><td style="vertical-align:top;">:</td><td><div>True</div></td></tr><tr><td style="font-weight:bold;vertical-align:top;">wsgi_run_once</td><td style="vertical-align:top;">:</td><td><div>False</div></td></tr><tr><td style="font-weight:bold;vertical-align:top;">wsgi_url_scheme</td><td style="vertical-align:top;">:</td><td><div>http</div></td></tr><tr><td style="font-weight:bold;vertical-align:top;">wsgi_version</td><td style="vertical-align:top;">:</td><td><div><table><tr><td><div>1</div></td></tr><tr><td><div>0</div></td></tr></table></div></td></tr></table></div></td></tr><tr><td style="font-weight:bold;vertical-align:top;">extension</td><td style="vertical-align:top;">:</td><td><div>html</div></td></tr><tr><td style="font-weight:bold;vertical-align:top;">folder</td><td style="vertical-align:top;">:</td><td><div>/home/mka/web2py/applications/kurssihallinta/</div></td></tr><tr><td style="font-weight:bold;vertical-align:top;">function</td><td style="vertical-align:top;">:</td><td><div>opettaja_alkusivu</div></td></tr><tr><td style="font-weight:bold;vertical-align:top;">global_settings</td><td style="vertical-align:top;">:</td><td><div><table><tr><td style="font-weight:bold;vertical-align:top;">app_folders</td><td style="vertical-align:top;">:</td><td><div>set([&#x27;/home/mka/web2py/applications/welcome/&#x27;, &#x27;/home/mka/web2py/applications/kurssihallinta/&#x27;, &#x27;/home/mka/web2py/applications/admin/&#x27;, &#x27;/home/mka/web2py/applications/test/&#x27;, &#x27;/home/mka/web2py/applications/manage/&#x27;, &#x27;/home/mka/web2py/applications/examples/&#x27;])</div></td></tr><tr><td style="font-weight:bold;vertical-align:top;">applications_parent</td><td style="vertical-align:top;">:</td><td><div>/home/mka/web2py</div></td></tr><tr><td style="font-weight:bold;vertical-align:top;">cmd_args</td><td style="vertical-align:top;">:</td><td><div><table></table></div></td></tr><tr><td style="font-weight:bold;vertical-align:top;">cmd_options</td><td style="vertical-align:top;">:</td><td><div>&lt;Values at 0xa1c99cc: {&#x27;verbose&#x27;: False, &#x27;ip&#x27;: &#x27;127.0.0.1&#x27;, &#x27;debuglevel&#x27;: 30, &#x27;with_scheduler&#x27;: False, &#x27;ips&#x27;: [&#x27;::1&#x27;], &#x27;shutdown_timeout&#x27;: 5, &#x27;taskbar&#x27;: False, &#x27;with_coverage&#x27;: False, &#x27;port&#x27;: 8000, &#x27;maxthreads&#x27;: None, &#x27;softcron&#x27;: False, &#x27;server_name&#x27;: &#x27;mka3830TG&#x27;, &#x27;bpython&#x27;: False, &#x27;nogui&#x27;: False, &#x27;pid_filename&#x27;: &#x27;httpserver.pid&#x27;, &#x27;extcron&#x27;: False, &#x27;runcron&#x27;: False, &#x27;run_system_tests&#x27;: False, &#x27;test&#x27;: None, &#x27;folder&#x27;: &#x27;/home/mka/web2py&#x27;, &#x27;config&#x27;: &#x27;&#x27;, &#x27;minthreads&#x27;: None, &#x27;shell&#x27;: None, &#x27;run&#x27;: &#x27;&#x27;, &#x27;log_filename&#x27;: &#x27;httpserver.log&#x27;, &#x27;profiler_dir&#x27;: None, &#x27;args&#x27;: [&#x27;&#x27;], &#x27;socket_timeout&#x27;: 5, &#x27;ssl_ca_certificate&#x27;: None, &#x27;scheduler&#x27;: None, &#x27;interfaces&#x27;: None, &#x27;ssl_private_key&#x27;: &#x27;&#x27;, &#x27;scheduler_groups&#x27;: None, &#x27;password&#x27;: &#x27;&lt;ask&gt;&#x27;, &#x27;request_queue_size&#x27;: 5, &#x27;ssl_certificate&#x27;: &#x27;&#x27;, &#x27;cronjob&#x27;: False, &#x27;numthreads&#x27;: None, &#x27;quiet&#x27;: False, &#x27;import_models&#x27;: False, &#x27;timeout&#x27;: 10, &#x27;plain&#x27;: False, &#x27;nobanner&#x27;: False}&gt;</div></td></tr><tr><td style="font-weight:bold;vertical-align:top;">db_sessions</td><td style="vertical-align:top;">:</td><td><div>set([])</div></td></tr><tr><td style="font-weight:bold;vertical-align:top;">debugging</td><td style="vertical-align:top;">:</td><td><div>True</div></td></tr><tr><td style="font-weight:bold;vertical-align:top;">gluon_parent</td><td style="vertical-align:top;">:</td><td><div>/home/mka/web2py</div></td></tr><tr><td style="font-weight:bold;vertical-align:top;">is_jython</td><td style="vertical-align:top;">:</td><td><div>False</div></td></tr><tr><td style="font-weight:bold;vertical-align:top;">is_pypy</td><td style="vertical-align:top;">:</td><td><div>False</div></td></tr><tr><td style="font-weight:bold;vertical-align:top;">is_source</td><td style="vertical-align:top;">:</td><td><div>True</div></td></tr><tr><td style="font-weight:bold;vertical-align:top;">local_hosts</td><td style="vertical-align:top;">:</td><td><div><table><tr><td><div>::ffff:127.0.0.1</div></td></tr><tr><td><div>::1</div></td></tr><tr><td><div>mka3830TG</div></td></tr><tr><td><div>localhost6.localdomain6</div></td></tr><tr><td><div>127.0.1.1</div></td></tr><tr><td><div>127.0.0.1</div></td></tr></table></div></td></tr><tr><td style="font-weight:bold;vertical-align:top;">web2py_version</td><td style="vertical-align:top;">:</td><td><div>2.9.5-stable+timestamp.2014.03.16.02.35.39</div></td></tr></table></div></td></tr><tr><td style="font-weight:bold;vertical-align:top;">is_https</td><td style="vertical-align:top;">:</td><td><div>False</div></td></tr><tr><td style="font-weight:bold;vertical-align:top;">is_local</td><td style="vertical-align:top;">:</td><td><div>True</div></td></tr><tr><td style="font-weight:bold;vertical-align:top;">is_restful</td><td style="vertical-align:top;">:</td><td><div>False</div></td></tr><tr><td style="font-weight:bold;vertical-align:top;">now</td><td style="vertical-align:top;">:</td><td><div>datetime.datetime(2014, 6, 11, 12, 14, 1, 770527)</div></td></tr><tr><td style="font-weight:bold;vertical-align:top;">raw_args</td><td style="vertical-align:top;">:</td><td><div></div></td></tr><tr><td style="font-weight:bold;vertical-align:top;">raw_extension</td><td style="vertical-align:top;">:</td><td><div>None</div></td></tr><tr><td style="font-weight:bold;vertical-align:top;">url</td><td style="vertical-align:top;">:</td><td><div>/kurssihallinta/opettaja/opettaja_alkusivu</div></td></tr><tr><td style="font-weight:bold;vertical-align:top;">utcnow</td><td style="vertical-align:top;">:</td><td><div>datetime.datetime(2014, 6, 11, 9, 14, 1, 770576)</div></td></tr><tr><td style="font-weight:bold;vertical-align:top;">uuid</td><td style="vertical-align:top;">:</td><td><div>kurssihallinta/127.0.0.1.2014-06-11.12-14-01.6173e954-1ebc-4740-9d9e-8620139dc234</div></td></tr><tr><td style="font-weight:bold;vertical-align:top;">wsgi</td><td style="vertical-align:top;">:</td><td><div>&lt;gluon.main.LazyWSGI object at 0xb143188c&gt;</div></td></tr></table></div>'
tRp62
sS'frames'
p63
(lp64
(dp65
S'file'
p66
S'/home/mka/web2py/gluon/restricted.py'
p67
sS'dump'
p68
(dp69
S'environment'
p70
S"{'A': <class 'gluon.html.A'>, 'ANY_OF': <class 'gluon.validators.ANY_OF'>, 'Auth': <class 'gluon.tools.Auth'>, 'B': <class 'gluon.html.B'>, 'BEAUTIFY': <class 'gluon.html.BEAUTIFY'>, 'BODY': <class 'gluon.html.BODY'>, 'BR': <class 'gluon.html.BR'>, 'BUTTON': <class 'gluon.html.BUTTON'>, 'CAT': <class 'gluon.html.CAT'>, 'CENTER': <class 'gluon.html.CENTER'>, ...}"
p71
sS'ccode'
p72
S'<code object <module> at 0xa7479d10, file "/home...pplications/kurssihallinta/models/db.py", line 2>'
p73
ssS'lnum'
p74
I220
sS'lines'
p75
(dp76
I224
S'        # do not encapsulate (obfuscate) the original RestrictedError'
p77
sI215
S'    try:'
p78
sI216
S'        if isinstance(code, types.CodeType):'
p79
sI217
S'            ccode = code'
p80
sI218
S'        else:'
p81
sI219
S'            ccode = compile2(code, layer)'
p82
sI220
S'        exec ccode in environment'
p83
sI221
S'    except HTTP:'
p84
sI222
S'        raise'
p85
sI223
S'    except RestrictedError:'
p86
ssS'call'
p87
S"(code='#Heroku begin\\nfrom gluon.tools import Auth\\n\\ndef ..._id.writable = db.post.image_id.readable = False\\n', environment={'A': <class 'gluon.html.A'>, 'ANY_OF': <class 'gluon.validators.ANY_OF'>, 'Auth': <class 'gluon.tools.Auth'>, 'B': <class 'gluon.html.B'>, 'BEAUTIFY': <class 'gluon.html.BEAUTIFY'>, 'BODY': <class 'gluon.html.BODY'>, 'BR': <class 'gluon.html.BR'>, 'BUTTON': <class 'gluon.html.BUTTON'>, 'CAT': <class 'gluon.html.CAT'>, 'CENTER': <class 'gluon.html.CENTER'>, ...}, layer='/home/mka/web2py/applications/kurssihallinta/models/db.py')"
p88
sS'func'
p89
S'restricted'
p90
sa(dp91
g66
S'/home/mka/web2py/applications/kurssihallinta/models/db.py'
p92
sg68
(dp93
S'builtinformat'
p94
S'<built-in function format>'
p95
ssg74
I37
sg75
(dp96
I32
S"#   format = '%(auth_user.first_name)s')"
p97
sI33
S''
sI34
S"db.define_table('kurssi',"
p98
sI35
S"   Field('kurssin_nimi', unique=True),"
p99
sI36
S"   Field('opettaja_id', 'reference opettaja'),"
p100
sI37
S"   format = '%(kurssin_nimi)s')"
p101
sI38
S''
sI39
S'#liitostaulu, monen suhde moneen oppilaan ja kurssin v\xc3\xa4lill\xc3\xa4'
p102
sI40
S"#db.define_table('opiskelijatKursseilla',"
p103
sI41
S"#   Field('opiskelija_id', 'reference opiskelija'),"
p104
ssg87
S'()'
p105
sg89
S'<module>'
p106
sa(dp107
g66
S'/home/mka/web2py/gluon/dal.py'
p108
sg68
(dp109
S'fields'
p110
S'(<gluon.dal.Field object>, <gluon.dal.Field object>)'
p111
sS'self'
p112
S'<DAL uri="sqlite://storage.sqlite">'
p113
sS'args'
p114
S"{'format': '%(kurssin_nimi)s'}"
p115
sS'tablename'
p116
S"'kurssi'"
p117
sS'table'
p118
S'undefined'
p119
sS'self.lazy_define_table'
p120
S'<bound method DAL.lazy_define_table of <DAL uri="sqlite://storage.sqlite">>'
p121
ssg74
I8223
sg75
(dp122
I8224
S'        if not tablename in self.tables:'
p123
sI8225
S'            self.tables.append(tablename)'
p124
sI8226
S'        return table'
p125
sI8227
S''
sI8218
S'                    % (tablename,invalid_args))'
p126
sI8219
S'        if self._lazy_tables and not tablename in self._LAZY_TABLES:'
p127
sI8220
S'            self._LAZY_TABLES[tablename] = (tablename,fields,args)'
p128
sI8221
S'            table = None'
p129
sI8222
S'        else:'
p130
sI8223
S'            table = self.lazy_define_table(tablename,*fields,**args)'
p131
ssg87
S'(self=<DAL uri="sqlite://storage.sqlite">, tablename=\'kurssi\', *fields=(<gluon.dal.Field object>, <gluon.dal.Field object>), **args={\'format\': \'%(kurssin_nimi)s\'})'
p132
sg89
S'define_table'
p133
sa(dp134
g66
S'/home/mka/web2py/gluon/dal.py'
p135
sg68
(dp136
S'polymodel'
p137
S'None'
p138
ssg74
I8260
sg75
(dp139
I8256
S'                GLOBAL_LOCKER.acquire()'
p140
sI8257
S'                self._lastsql = self._adapter.create_table('
p141
sI8258
S'                    table,migrate=migrate,'
p142
sI8259
S'                    fake_migrate=fake_migrate,'
p143
sI8260
S'                    polymodel=polymodel)'
p144
sI8261
S'            finally:'
p145
sI8262
S'                GLOBAL_LOCKER.release()'
p146
sI8263
S'        else:'
p147
sI8264
S'            table._dbt = None'
p148
sI8255
S'            try:'
p149
ssg87
S'(self=<DAL uri="sqlite://storage.sqlite">, tablename=\'kurssi\', *fields=(<gluon.dal.Field object>, <gluon.dal.Field object>), **args={\'format\': \'%(kurssin_nimi)s\'})'
p150
sg89
S'lazy_define_table'
p151
sa(dp152
g66
S'/home/mka/web2py/gluon/dal.py'
p153
sg68
(dp154
S'fake_migrate'
p155
S'False'
p156
ssg74
I1132
sg75
(dp157
I1127
S'            if sql_fields != sql_fields_old:'
p158
sI1128
S'                self.migrate_table('
p159
sI1129
S'                    table,'
p160
sI1130
S'                    sql_fields, sql_fields_old,'
p161
sI1131
S'                    sql_fields_aux, None,'
p162
sI1132
S'                    fake_migrate=fake_migrate'
p163
sI1133
S'                    )'
p164
sI1134
S'        return query'
p165
sI1135
S''
sI1136
S'    def migrate_table('
p166
ssg87
S'(self=<gluon.dal.SQLiteAdapter object>, table=<Table kurssi (id,kurssin_nimi,opettaja_id)>, migrate=True, fake_migrate=False, polymodel=None)'
p167
sg89
S'create_table'
p168
sa(dp169
g66
S'/home/mka/web2py/gluon/dal.py'
p170
sg68
(dp171
S'self'
p172
S'<gluon.dal.SQLiteAdapter object>'
p173
sS'self.execute'
p174
S'<bound method SQLiteAdapter.execute of <gluon.dal.SQLiteAdapter object>>'
p175
sS'sub_query'
p176
S"'ALTER TABLE kurssi ADD kurssin_nimi CHAR(512) UNIQUE;'"
p177
ssg74
I1245
sg75
(dp178
I1248
S'                        # in one transaction so we must commit'
p179
sI1249
S'                        # partial transactions and'
p180
sI1240
S'                    if fake_migrate:'
p181
sI1241
S'                        if db._adapter.commit_on_alter_table:'
p182
sI1242
S'                            self.save_dbt(table,sql_fields_current)'
p183
sI1243
S"                        self.log('faked!\\n', table)"
p184
sI1244
S'                    else:'
p185
sI1245
S'                        self.execute(sub_query)'
p186
sI1246
S'                        # Caveat: mysql, oracle and firebird'
p187
sI1247
S'                        # do not allow multiple alter table'
p188
ssg87
S"(self=<gluon.dal.SQLiteAdapter object>, table=<Table kurssi (id,kurssin_nimi,opettaja_id)>, sql_fields={'id': {'length': 512, 'notnull': False, 'sortable': 1, 'sql': 'INTEGER PRIMARY KEY AUTOINCREMENT', 'type': 'id', 'unique': False}, 'kurssin_nimi': {'length': 512, 'notnull': False, 'sortable': 2, 'sql': 'CHAR(512) UNIQUE', 'type': 'string', 'unique': True}, 'opettaja_id': {'length': 512, 'notnull': False, 'sortable': 3, 'sql': 'INTEGER REFERENCES opettaja (id) ON DELETE CASCADE', 'type': 'reference opettaja', 'unique': False}}, sql_fields_old={'id': {'length': 512, 'notnull': False, 'sortable': 1, 'sql': 'INTEGER PRIMARY KEY AUTOINCREMENT', 'type': 'id', 'unique': False}, 'kurssityo_id': {'sortable': 3, 'sql': 'INTEGER REFERENCES kurssityo(id) ON DELETE CASCADE', 'type': 'reference kurssityo'}, 'nimi': {'length': 512, 'notnull': False, 'sortable': 2, 'sql': 'CHAR(512)', 'type': 'string', 'unique': False}, 'opettaja_id': {'length': 512, 'notnull': False, 'sortable': 3, 'sql': 'INTEGER REFERENCES opettaja (id) ON DELETE CASCADE', 'type': 'reference opettaja', 'unique': False}, 'oppilas_id': {'length': 512, 'notnull': False, 'sortable': 4, 'sql': 'INTEGER REFERENCES oppilas (id) ON DELETE CASCADE', 'type': 'reference oppilas', 'unique': False}, 'title': {'length': 512, 'notnull': False, 'sortable': 2, 'sql': 'CHAR(512) UNIQUE', 'type': 'string', 'unique': True}, 'toidennimet': {'length': 512, 'notnull': False, 'sortable': 3, 'sql': 'TEXT', 'type': 'list:string', 'unique': False}}, sql_fields_aux={'id': {'sql': 'INTEGER PRIMARY KEY AUTOINCREMENT'}, 'kurssin_nimi': {'sql': 'CHAR(512) UNIQUE'}, 'opettaja_id': {'sql': 'INTEGER REFERENCES opettaja (id) ON DELETE CASCADE'}}, logfile=None, fake_migrate=False)"
p189
sg89
S'migrate_table'
p190
sa(dp191
g66
S'/home/mka/web2py/gluon/dal.py'
p192
sg68
(dp193
S'a'
S"('ALTER TABLE kurssi ADD kurssin_nimi CHAR(512) UNIQUE;',)"
p194
sS'self'
p195
S'<gluon.dal.SQLiteAdapter object>'
p196
sS'b'
g21
sS'self.log_execute'
p197
S'<bound method SQLiteAdapter.log_execute of <gluon.dal.SQLiteAdapter object>>'
p198
ssg74
I1969
sg75
(dp199
I1964
S'        self.db._timings.append((command,time.time()-t0))'
p200
sI1965
S'        del self.db._timings[:-TIMINGSSIZE]'
p201
sI1966
S'        return ret'
p202
sI1967
S''
sI1968
S'    def execute(self, *a, **b):'
p203
sI1969
S'        return self.log_execute(*a, **b)'
p204
sI1970
S''
sI1971
S'    def represent(self, obj, fieldtype):'
p205
sI1972
S'        field_is_type = fieldtype.startswith'
p206
sI1973
S'        if isinstance(obj, CALLABLETYPES):'
p207
ssg87
S"(self=<gluon.dal.SQLiteAdapter object>, *a=('ALTER TABLE kurssi ADD kurssin_nimi CHAR(512) UNIQUE;',), **b={})"
p208
sg89
S'execute'
p209
sa(dp210
g66
S'/home/mka/web2py/gluon/dal.py'
p211
sg68
(dp212
S'a'
S"('ALTER TABLE kurssi ADD kurssin_nimi CHAR(512) UNIQUE;',)"
p213
sS'b'
g21
sS'self'
p214
S'<gluon.dal.SQLiteAdapter object>'
p215
sS'ret'
p216
g119
sS'self.cursor'
p217
S'<pysqlite2.dbapi2.Cursor object>'
p218
sS'command'
p219
S"'ALTER TABLE kurssi ADD kurssin_nimi CHAR(512) UNIQUE;'"
p220
sS'self.cursor.execute'
p221
S'<built-in method execute of pysqlite2.dbapi2.Cursor object>'
p222
ssg74
I1963
sg75
(dp223
I1958
S'            command = self.filter_sql_command(command)'
p224
sI1959
S'        if self.db._debug:'
p225
sI1960
S"            LOGGER.debug('SQL: %s' % command)"
p226
sI1961
S'        self.db._lastsql = command'
p227
sI1962
S'        t0 = time.time()'
p228
sI1963
S'        ret = self.cursor.execute(command, *a[1:], **b)'
p229
sI1964
S'        self.db._timings.append((command,time.time()-t0))'
p230
sI1965
S'        del self.db._timings[:-TIMINGSSIZE]'
p231
sI1966
S'        return ret'
p232
sI1967
S''
ssg87
S"(self=<gluon.dal.SQLiteAdapter object>, *a=('ALTER TABLE kurssi ADD kurssin_nimi CHAR(512) UNIQUE;',), **b={})"
p233
sg89
S'log_execute'
p234
sasS'pyver'
p235
S'Python 2.7.3: /usr/bin/python (prefix: /usr)'
p236
sS'session'
p237
g61
(S's+\n\x00\x00<div><table><tr><td style="font-weight:bold;vertical-align:top;">auth</td><td style="vertical-align:top;">:</td><td><div><table><tr><td style="font-weight:bold;vertical-align:top;">expiration</td><td style="vertical-align:top;">:</td><td><div>3600</div></td></tr><tr><td style="font-weight:bold;vertical-align:top;">hmac_key</td><td style="vertical-align:top;">:</td><td><div>a294317d-a75f-41e6-859c-0ba8a816b22f</div></td></tr><tr><td style="font-weight:bold;vertical-align:top;">last_visit</td><td style="vertical-align:top;">:</td><td><div>datetime.datetime(2014, 6, 11, 12, 9, 15, 473347)</div></td></tr><tr><td style="font-weight:bold;vertical-align:top;">remember</td><td style="vertical-align:top;">:</td><td><div>False</div></td></tr><tr><td style="font-weight:bold;vertical-align:top;">user</td><td style="vertical-align:top;">:</td><td><div><table><tr><td style="font-weight:bold;vertical-align:top;">email</td><td style="vertical-align:top;">:</td><td><div>onerva.opettaja@gmail.com</div></td></tr><tr><td style="font-weight:bold;vertical-align:top;">first_name</td><td style="vertical-align:top;">:</td><td><div>Onerva</div></td></tr><tr><td style="font-weight:bold;vertical-align:top;">id</td><td style="vertical-align:top;">:</td><td><div>4L</div></td></tr><tr><td style="font-weight:bold;vertical-align:top;">last_name</td><td style="vertical-align:top;">:</td><td><div>Opettaja</div></td></tr><tr><td style="font-weight:bold;vertical-align:top;">registration_id</td><td style="vertical-align:top;">:</td><td><div></div></td></tr><tr><td style="font-weight:bold;vertical-align:top;">registration_key</td><td style="vertical-align:top;">:</td><td><div></div></td></tr><tr><td style="font-weight:bold;vertical-align:top;">reset_password_key</td><td style="vertical-align:top;">:</td><td><div></div></td></tr><tr><td style="font-weight:bold;vertical-align:top;">username</td><td style="vertical-align:top;">:</td><td><div>onerva</div></td></tr></table></div></td></tr><tr><td style="font-weight:bold;vertical-align:top;">user_groups</td><td style="vertical-align:top;">:</td><td><div><table><tr><td style="font-weight:bold;vertical-align:top;">1</td><td style="vertical-align:top;">:</td><td><div>opettaja</div></td></tr></table></div></td></tr></table></div></td></tr><tr><td style="font-weight:bold;vertical-align:top;">flash</td><td style="vertical-align:top;">:</td><td><div>None</div></td></tr><tr><td style="font-weight:bold;vertical-align:top;">kurssit_ids</td><td style="vertical-align:top;">:</td><td><div><table><tr><td><div>10</div></td></tr></table></div></td></tr></table></div>'
tRp238
sS'etype'
p239
S"<class 'pysqlite2.dbapi2.OperationalError'>"
p240
sS'date'
p241
S'Wed Jun 11 12:14:01 2014'
p242
sS'response'
p243
g61
(S's\xe4\x16\x00\x00<div><table><tr><td style="font-weight:bold;vertical-align:top;">body</td><td style="vertical-align:top;">:</td><td><div>&lt;cStringIO.StringO object at 0xb1431080&gt;</div></td></tr><tr><td style="font-weight:bold;vertical-align:top;">cookies</td><td style="vertical-align:top;">:</td><td><div><table><tr><td style="font-weight:bold;vertical-align:top;">session_id_kurssihallinta</td><td style="vertical-align:top;">:</td><td><div>127.0.0.1-d6a9b865-1c8b-4a0d-9255-572cd81738d5<table><tr><td style="font-weight:bold;vertical-align:top;">comment</td><td style="vertical-align:top;">:</td><td><div></div></td></tr><tr><td style="font-weight:bold;vertical-align:top;">domain</td><td style="vertical-align:top;">:</td><td><div></div></td></tr><tr><td style="font-weight:bold;vertical-align:top;">expires</td><td style="vertical-align:top;">:</td><td><div></div></td></tr><tr><td style="font-weight:bold;vertical-align:top;">httponly</td><td style="vertical-align:top;">:</td><td><div></div></td></tr><tr><td style="font-weight:bold;vertical-align:top;">max-age</td><td style="vertical-align:top;">:</td><td><div></div></td></tr><tr><td style="font-weight:bold;vertical-align:top;">path</td><td style="vertical-align:top;">:</td><td><div>/</div></td></tr><tr><td style="font-weight:bold;vertical-align:top;">secure</td><td style="vertical-align:top;">:</td><td><div></div></td></tr><tr><td style="font-weight:bold;vertical-align:top;">version</td><td style="vertical-align:top;">:</td><td><div></div></td></tr></table></div></td></tr></table></div></td></tr><tr><td style="font-weight:bold;vertical-align:top;">delimiters</td><td style="vertical-align:top;">:</td><td><div><table><tr><td><div>{{</div></td></tr><tr><td><div>}}</div></td></tr></table></div></td></tr><tr><td style="font-weight:bold;vertical-align:top;">files</td><td style="vertical-align:top;">:</td><td><div><table></table></div></td></tr><tr><td style="font-weight:bold;vertical-align:top;">flash</td><td style="vertical-align:top;">:</td><td><div></div></td></tr><tr><td style="font-weight:bold;vertical-align:top;">generic_patterns</td><td style="vertical-align:top;">:</td><td><div><table></table></div></td></tr><tr><td style="font-weight:bold;vertical-align:top;">headers</td><td style="vertical-align:top;">:</td><td><div><table><tr><td style="font-weight:bold;vertical-align:top;">X-Powered-By</td><td style="vertical-align:top;">:</td><td><div>web2py</div></td></tr></table></div></td></tr><tr><td style="font-weight:bold;vertical-align:top;">menu</td><td style="vertical-align:top;">:</td><td><div><table></table></div></td></tr><tr><td style="font-weight:bold;vertical-align:top;">meta</td><td style="vertical-align:top;">:</td><td><div><table></table></div></td></tr><tr><td style="font-weight:bold;vertical-align:top;">models_to_run</td><td style="vertical-align:top;">:</td><td><div><table><tr><td><div>^\\w+\\.py$</div></td></tr><tr><td><div>^opettaja/\\w+\\.py$</div></td></tr><tr><td><div>^opettaja/opettaja_alkusivu/\\w+\\.py$</div></td></tr></table></div></td></tr><tr><td style="font-weight:bold;vertical-align:top;">postprocessing</td><td style="vertical-align:top;">:</td><td><div><table></table></div></td></tr><tr><td style="font-weight:bold;vertical-align:top;">session_client</td><td style="vertical-align:top;">:</td><td><div>127.0.0.1</div></td></tr><tr><td style="font-weight:bold;vertical-align:top;">session_cookie_compression_level</td><td style="vertical-align:top;">:</td><td><div>None</div></td></tr><tr><td style="font-weight:bold;vertical-align:top;">session_cookie_expires</td><td style="vertical-align:top;">:</td><td><div>None</div></td></tr><tr><td style="font-weight:bold;vertical-align:top;">session_cookie_key</td><td style="vertical-align:top;">:</td><td><div>None</div></td></tr><tr><td style="font-weight:bold;vertical-align:top;">session_data_name</td><td style="vertical-align:top;">:</td><td><div>session_data_kurssihallinta</div></td></tr><tr><td style="font-weight:bold;vertical-align:top;">session_file</td><td style="vertical-align:top;">:</td><td><div>&lt;open file &#x27;/home/mka/web2py/applications/kurssihallinta/sessions/127.0.0.1-d6a9b865-1c8b-4a0d-9255-572cd81738d5&#x27;, mode &#x27;rb+&#x27; at 0xa7778288&gt;</div></td></tr><tr><td style="font-weight:bold;vertical-align:top;">session_filename</td><td style="vertical-align:top;">:</td><td><div>/home/mka/web2py/applications/kurssihallinta/sessions/127.0.0.1-d6a9b865-1c8b-4a0d-9255-572cd81738d5</div></td></tr><tr><td style="font-weight:bold;vertical-align:top;">session_hash</td><td style="vertical-align:top;">:</td><td><div>7bacee39bbfed7520f21f9a07cda102a</div></td></tr><tr><td style="font-weight:bold;vertical-align:top;">session_id</td><td style="vertical-align:top;">:</td><td><div>127.0.0.1-d6a9b865-1c8b-4a0d-9255-572cd81738d5</div></td></tr><tr><td style="font-weight:bold;vertical-align:top;">session_id_name</td><td style="vertical-align:top;">:</td><td><div>session_id_kurssihallinta</div></td></tr><tr><td style="font-weight:bold;vertical-align:top;">session_locked</td><td style="vertical-align:top;">:</td><td><div>True</div></td></tr><tr><td style="font-weight:bold;vertical-align:top;">session_masterapp</td><td style="vertical-align:top;">:</td><td><div>kurssihallinta</div></td></tr><tr><td style="font-weight:bold;vertical-align:top;">session_new</td><td style="vertical-align:top;">:</td><td><div>False</div></td></tr><tr><td style="font-weight:bold;vertical-align:top;">session_storage_type</td><td style="vertical-align:top;">:</td><td><div>file</div></td></tr><tr><td style="font-weight:bold;vertical-align:top;">status</td><td style="vertical-align:top;">:</td><td><div>200</div></td></tr><tr><td style="font-weight:bold;vertical-align:top;">view</td><td style="vertical-align:top;">:</td><td><div>opettaja/opettaja_alkusivu.html</div></td></tr></table></div>'
tRp244
sS'locals'
p245
(dp246
S'a'
S"('ALTER TABLE kurssi ADD kurssin_nimi CHAR(512) UNIQUE;',)"
p247
sS'self'
p248
S'<gluon.dal.SQLiteAdapter object>'
p249
sS'b'
g21
sS'command'
p250
S"'ALTER TABLE kurssi ADD kurssin_nimi CHAR(512) UNIQUE;'"
p251
sS't0'
p252
S'1402478041.855973'
p253
sssS'traceback'
p254
S'Traceback (most recent call last):\n  File "/home/mka/web2py/gluon/restricted.py", line 220, in restricted\n    exec ccode in environment\n  File "/home/mka/web2py/applications/kurssihallinta/models/db.py", line 37, in <module>\n    format = \'%(kurssin_nimi)s\')\n  File "/home/mka/web2py/gluon/dal.py", line 8223, in define_table\n    table = self.lazy_define_table(tablename,*fields,**args)\n  File "/home/mka/web2py/gluon/dal.py", line 8260, in lazy_define_table\n    polymodel=polymodel)\n  File "/home/mka/web2py/gluon/dal.py", line 1132, in create_table\n    fake_migrate=fake_migrate\n  File "/home/mka/web2py/gluon/dal.py", line 1245, in migrate_table\n    self.execute(sub_query)\n  File "/home/mka/web2py/gluon/dal.py", line 1969, in execute\n    return self.log_execute(*a, **b)\n  File "/home/mka/web2py/gluon/dal.py", line 1963, in log_execute\n    ret = self.cursor.execute(command, *a[1:], **b)\nOperationalError: Cannot add a UNIQUE column\n'
p255
s.