(dp1
S'output'
p2
S"<type 'exceptions.AttributeError'> 'NoneType' object has no attribute 'first_name'"
p3
sS'layer'
p4
S'/home/mka/web2py/applications/kurssihallinta/views/default/oppilas_kaikki_kurssit.html'
p5
sS'code'
p6
S'response.write(\'<html>\\n<body>\\n<head>\\n<div id="header">\\n\\n<div id="navigation"> \\n\', escape=False)\nresponse.write(auth.user.first_name)\nresponse.write(\' \', escape=False)\nresponse.write(auth.user.last_name)\nresponse.write(\' \\n\', escape=False)\nif \'oppilas\' in auth.user_groups.values():\n    response.write(\'\\n   <a href="\', escape=False)\n    response.write(URL(\'default\',\'oppilas_kaikki_kurssit\'))\n    response.write(\'">Oppilas omat kurssit</a>\\n\', escape=False)\n    pass\nresponse.write(\'\\n\', escape=False)\nif \'opettaja\' in auth.user_groups.values():\n    response.write(\'\\n   <a href="\', escape=False)\n    response.write(URL(\'default\',\'opettaja_kaikki_kurssit\'))\n    response.write(\'">Opettaja omat kurssit</a>\\n\', escape=False)\n    pass\nresponse.write(\'\\n<a href="\', escape=False)\nresponse.write(URL(\'default/user\',\'logout\'))\nresponse.write(\'">Logout</a>\\n</div>\\n\\n <!-- include stylesheets -->\\n  \', escape=False)\nresponse.files.append(URL(\'static\',\'css/skeleton.css\'))\nresponse.files.append(URL(\'static\',\'css/web2py.css\'))\nresponse.files.append(URL(\'static\',\'css/superfish.css\'))\nresponse.files.append(URL(\'static\',\'js/superfish.js\'))\nresponse.write(\'\\n\\n\', escape=False)\nresponse.write(\'\\n<h1>Kurssilista (uusin ensin)</h1>\\n<ul>\\n\', escape=False)\nfor kurssi in kurssit:\n    response.write(\'\\n\', escape=False)\n    response.write(LI(A(kurssi.title, _href=URL("default","oppilas_yksi_kurssi", args=kurssi.id))))\n    response.write(\'\\n\', escape=False)\n    pass\nresponse.write(\'\\n\\nkurssi omaKA muidenKA valitse oppilasEiPalauttanut opeEiLadannut opeEiKorjannut </br>\\n<h3>VARSINAISET KURSSIT T\\xc3\\x84H\\xc3\\x84N</h3>\\n\\n\', escape=False)\nresponse.write(oppilaita_kurssilla)\nresponse.write(\'\\n\\n\\n\', escape=False)\nresponse.write(\'\\n</head>\\n</body>\\n</html>\\n\', escape=False)'
p7
sS'snapshot'
p8
(dp9
S'exception'
p10
(dp11
S'__hash__'
p12
S"<method-wrapper '__hash__' of exceptions.AttributeError object>"
p13
sS'__setattr__'
p14
S"<method-wrapper '__setattr__' of exceptions.AttributeError object>"
p15
sS'__reduce_ex__'
p16
S'<built-in method __reduce_ex__ of exceptions.AttributeError object>'
p17
sS'__getslice__'
p18
S"<method-wrapper '__getslice__' of exceptions.AttributeError object>"
p19
sS'__getitem__'
p20
S"<method-wrapper '__getitem__' of exceptions.AttributeError object>"
p21
sS'__setstate__'
p22
S'<built-in method __setstate__ of exceptions.AttributeError object>'
p23
sS'__reduce__'
p24
S'<built-in method __reduce__ of exceptions.AttributeError object>'
p25
sS'__str__'
p26
S"<method-wrapper '__str__' of exceptions.AttributeError object>"
p27
sS'__format__'
p28
S'<built-in method __format__ of exceptions.AttributeError object>'
p29
sS'__getattribute__'
p30
S"<method-wrapper '__getattribute__' of exceptions.AttributeError object>"
p31
sS'__class__'
p32
S"<type 'exceptions.AttributeError'>"
p33
sS'__unicode__'
p34
S'<built-in method __unicode__ of exceptions.AttributeError object>'
p35
sS'__delattr__'
p36
S"<method-wrapper '__delattr__' of exceptions.AttributeError object>"
p37
sS'__subclasshook__'
p38
S'<built-in method __subclasshook__ of type object>'
p39
sS'__repr__'
p40
S"<method-wrapper '__repr__' of exceptions.AttributeError object>"
p41
sS'args'
p42
S'("\'NoneType\' object has no attribute \'first_name\'",)'
p43
sS'__dict__'
p44
S'{}'
p45
sS'__sizeof__'
p46
S'<built-in method __sizeof__ of exceptions.AttributeError object>'
p47
sS'__doc__'
p48
S"'Attribute not found.'"
p49
sS'__init__'
p50
S"<method-wrapper '__init__' of exceptions.AttributeError object>"
p51
sS'__new__'
p52
S'<built-in method __new__ of type object>'
p53
ssS'evalue'
p54
S"'NoneType' object has no attribute 'first_name'"
p55
sS'request'
p56
cgluon.html
XML_unpickle
p57
(S'sa]\x00\x00<div><table><tr><td style="font-weight:bold;vertical-align:top;">ajax</td><td style="vertical-align:top;">:</td><td><div>False</div></td></tr><tr><td style="font-weight:bold;vertical-align:top;">application</td><td style="vertical-align:top;">:</td><td><div>kurssihallinta</div></td></tr><tr><td style="font-weight:bold;vertical-align:top;">args</td><td style="vertical-align:top;">:</td><td><div><table></table></div></td></tr><tr><td style="font-weight:bold;vertical-align:top;">cid</td><td style="vertical-align:top;">:</td><td><div>None</div></td></tr><tr><td style="font-weight:bold;vertical-align:top;">client</td><td style="vertical-align:top;">:</td><td><div>127.0.0.1</div></td></tr><tr><td style="font-weight:bold;vertical-align:top;">controller</td><td style="vertical-align:top;">:</td><td><div>default</div></td></tr><tr><td style="font-weight:bold;vertical-align:top;">cookies</td><td style="vertical-align:top;">:</td><td><div><table><tr><td style="font-weight:bold;vertical-align:top;">session_id_admin</td><td style="vertical-align:top;">:</td><td><div>127.0.0.1-6f02d9b1-88b7-4387-b206-16b44f48a5dc<table><tr><td style="font-weight:bold;vertical-align:top;">comment</td><td style="vertical-align:top;">:</td><td><div></div></td></tr><tr><td style="font-weight:bold;vertical-align:top;">domain</td><td style="vertical-align:top;">:</td><td><div></div></td></tr><tr><td style="font-weight:bold;vertical-align:top;">expires</td><td style="vertical-align:top;">:</td><td><div></div></td></tr><tr><td style="font-weight:bold;vertical-align:top;">httponly</td><td style="vertical-align:top;">:</td><td><div></div></td></tr><tr><td style="font-weight:bold;vertical-align:top;">max-age</td><td style="vertical-align:top;">:</td><td><div></div></td></tr><tr><td style="font-weight:bold;vertical-align:top;">path</td><td style="vertical-align:top;">:</td><td><div></div></td></tr><tr><td style="font-weight:bold;vertical-align:top;">secure</td><td style="vertical-align:top;">:</td><td><div></div></td></tr><tr><td style="font-weight:bold;vertical-align:top;">version</td><td style="vertical-align:top;">:</td><td><div></div></td></tr></table></div></td></tr><tr><td style="font-weight:bold;vertical-align:top;">session_id_kurssihallinta</td><td style="vertical-align:top;">:</td><td><div>127.0.0.1-562407c0-fab4-4e11-ab98-bc29f0c181aa<table><tr><td style="font-weight:bold;vertical-align:top;">comment</td><td style="vertical-align:top;">:</td><td><div></div></td></tr><tr><td style="font-weight:bold;vertical-align:top;">domain</td><td style="vertical-align:top;">:</td><td><div></div></td></tr><tr><td style="font-weight:bold;vertical-align:top;">expires</td><td style="vertical-align:top;">:</td><td><div></div></td></tr><tr><td style="font-weight:bold;vertical-align:top;">httponly</td><td style="vertical-align:top;">:</td><td><div></div></td></tr><tr><td style="font-weight:bold;vertical-align:top;">max-age</td><td style="vertical-align:top;">:</td><td><div></div></td></tr><tr><td style="font-weight:bold;vertical-align:top;">path</td><td style="vertical-align:top;">:</td><td><div></div></td></tr><tr><td style="font-weight:bold;vertical-align:top;">secure</td><td style="vertical-align:top;">:</td><td><div></div></td></tr><tr><td style="font-weight:bold;vertical-align:top;">version</td><td style="vertical-align:top;">:</td><td><div></div></td></tr></table></div></td></tr><tr><td style="font-weight:bold;vertical-align:top;">session_id_welcome</td><td style="vertical-align:top;">:</td><td><div>127.0.0.1-deca7f36-b2fd-48a3-a192-bbe5444523b1<table><tr><td style="font-weight:bold;vertical-align:top;">comment</td><td style="vertical-align:top;">:</td><td><div></div></td></tr><tr><td style="font-weight:bold;vertical-align:top;">domain</td><td style="vertical-align:top;">:</td><td><div></div></td></tr><tr><td style="font-weight:bold;vertical-align:top;">expires</td><td style="vertical-align:top;">:</td><td><div></div></td></tr><tr><td style="font-weight:bold;vertical-align:top;">httponly</td><td style="vertical-align:top;">:</td><td><div></div></td></tr><tr><td style="font-weight:bold;vertical-align:top;">max-age</td><td style="vertical-align:top;">:</td><td><div></div></td></tr><tr><td style="font-weight:bold;vertical-align:top;">path</td><td style="vertical-align:top;">:</td><td><div></div></td></tr><tr><td style="font-weight:bold;vertical-align:top;">secure</td><td style="vertical-align:top;">:</td><td><div></div></td></tr><tr><td style="font-weight:bold;vertical-align:top;">version</td><td style="vertical-align:top;">:</td><td><div></div></td></tr></table></div></td></tr></table></div></td></tr><tr><td style="font-weight:bold;vertical-align:top;">env</td><td style="vertical-align:top;">:</td><td><div><table><tr><td style="font-weight:bold;vertical-align:top;">HTTP_ACCEPT</td><td style="vertical-align:top;">:</td><td><div>text/html,application/xhtml+xml,application/xml;q=0.9,*/*;q=0.8</div></td></tr><tr><td style="font-weight:bold;vertical-align:top;">HTTP_ACCEPT_CHARSET</td><td style="vertical-align:top;">:</td><td><div>ISO-8859-1,utf-8;q=0.7,*;q=0.3</div></td></tr><tr><td style="font-weight:bold;vertical-align:top;">HTTP_ACCEPT_ENCODING</td><td style="vertical-align:top;">:</td><td><div>gzip,deflate,sdch</div></td></tr><tr><td style="font-weight:bold;vertical-align:top;">HTTP_ACCEPT_LANGUAGE</td><td style="vertical-align:top;">:</td><td><div>en-US,en;q=0.8</div></td></tr><tr><td style="font-weight:bold;vertical-align:top;">HTTP_CACHE_CONTROL</td><td style="vertical-align:top;">:</td><td><div>max-age=0</div></td></tr><tr><td style="font-weight:bold;vertical-align:top;">HTTP_CONNECTION</td><td style="vertical-align:top;">:</td><td><div>keep-alive</div></td></tr><tr><td style="font-weight:bold;vertical-align:top;">HTTP_COOKIE</td><td style="vertical-align:top;">:</td><td><div>session_id_welcome=127.0.0.1-deca7f36-b2fd-48a3-a192-bbe5444523b1; session_id_admin=127.0.0.1-6f02d9b1-88b7-4387-b206-16b44f48a5dc; session_id_kurssihallinta=127.0.0.1-562407c0-fab4-4e11-ab98-bc29f0c181aa</div></td></tr><tr><td style="font-weight:bold;vertical-align:top;">HTTP_HOST</td><td style="vertical-align:top;">:</td><td><div>127.0.0.1:8000</div></td></tr><tr><td style="font-weight:bold;vertical-align:top;">HTTP_REFERER</td><td style="vertical-align:top;">:</td><td><div>http://127.0.0.1:8000/kurssihallinta/default/opettaja_kaikki_kurssit</div></td></tr><tr><td style="font-weight:bold;vertical-align:top;">HTTP_USER_AGENT</td><td style="vertical-align:top;">:</td><td><div>Mozilla/5.0 (X11; Linux i686) AppleWebKit/537.31 (KHTML, like Gecko) Chrome/26.0.1410.63 Safari/537.31</div></td></tr><tr><td style="font-weight:bold;vertical-align:top;">PATH_INFO</td><td style="vertical-align:top;">:</td><td><div>/kurssihallinta/default/oppilas_kaikki_kurssit</div></td></tr><tr><td style="font-weight:bold;vertical-align:top;">QUERY_STRING</td><td style="vertical-align:top;">:</td><td><div></div></td></tr><tr><td style="font-weight:bold;vertical-align:top;">REMOTE_ADDR</td><td style="vertical-align:top;">:</td><td><div>127.0.0.1</div></td></tr><tr><td style="font-weight:bold;vertical-align:top;">REMOTE_PORT</td><td style="vertical-align:top;">:</td><td><div>44311</div></td></tr><tr><td style="font-weight:bold;vertical-align:top;">REQUEST_METHOD</td><td style="vertical-align:top;">:</td><td><div>GET</div></td></tr><tr><td style="font-weight:bold;vertical-align:top;">SCRIPT_NAME</td><td style="vertical-align:top;">:</td><td><div></div></td></tr><tr><td style="font-weight:bold;vertical-align:top;">SERVER_NAME</td><td style="vertical-align:top;">:</td><td><div>mka3830TG</div></td></tr><tr><td style="font-weight:bold;vertical-align:top;">SERVER_PORT</td><td style="vertical-align:top;">:</td><td><div>8000</div></td></tr><tr><td style="font-weight:bold;vertical-align:top;">SERVER_PROTOCOL</td><td style="vertical-align:top;">:</td><td><div>HTTP/1.1</div></td></tr><tr><td style="font-weight:bold;vertical-align:top;">SERVER_SOFTWARE</td><td style="vertical-align:top;">:</td><td><div>Rocket 1.2.6</div></td></tr><tr><td style="font-weight:bold;vertical-align:top;">app_folders</td><td style="vertical-align:top;">:</td><td><div>set([&#x27;/home/mka/web2py/applications/examples/&#x27;, &#x27;/home/mka/web2py/applications/welcome/&#x27;, &#x27;/home/mka/web2py/applications/admin/&#x27;, &#x27;/home/mka/web2py/applications/kurssihallinta/&#x27;])</div></td></tr><tr><td style="font-weight:bold;vertical-align:top;">applications_parent</td><td style="vertical-align:top;">:</td><td><div>/home/mka/web2py</div></td></tr><tr><td style="font-weight:bold;vertical-align:top;">cmd_args</td><td style="vertical-align:top;">:</td><td><div><table></table></div></td></tr><tr><td style="font-weight:bold;vertical-align:top;">cmd_options</td><td style="vertical-align:top;">:</td><td><div>&lt;Values at 0x9333e4c: {&#x27;verbose&#x27;: False, &#x27;ip&#x27;: &#x27;127.0.0.1&#x27;, &#x27;debuglevel&#x27;: 30, &#x27;with_scheduler&#x27;: False, &#x27;ips&#x27;: [&#x27;::1&#x27;], &#x27;shutdown_timeout&#x27;: 5, &#x27;taskbar&#x27;: False, &#x27;with_coverage&#x27;: False, &#x27;port&#x27;: 8000, &#x27;maxthreads&#x27;: None, &#x27;softcron&#x27;: False, &#x27;server_name&#x27;: &#x27;mka3830TG&#x27;, &#x27;bpython&#x27;: False, &#x27;nogui&#x27;: False, &#x27;pid_filename&#x27;: &#x27;httpserver.pid&#x27;, &#x27;extcron&#x27;: False, &#x27;runcron&#x27;: False, &#x27;run_system_tests&#x27;: False, &#x27;test&#x27;: None, &#x27;folder&#x27;: &#x27;/home/mka/web2py&#x27;, &#x27;config&#x27;: &#x27;&#x27;, &#x27;minthreads&#x27;: None, &#x27;shell&#x27;: None, &#x27;run&#x27;: &#x27;&#x27;, &#x27;log_filename&#x27;: &#x27;httpserver.log&#x27;, &#x27;profiler_dir&#x27;: None, &#x27;args&#x27;: [&#x27;&#x27;], &#x27;socket_timeout&#x27;: 5, &#x27;ssl_ca_certificate&#x27;: None, &#x27;scheduler&#x27;: None, &#x27;interfaces&#x27;: None, &#x27;ssl_private_key&#x27;: &#x27;&#x27;, &#x27;scheduler_groups&#x27;: None, &#x27;password&#x27;: &#x27;&lt;ask&gt;&#x27;, &#x27;request_queue_size&#x27;: 5, &#x27;ssl_certificate&#x27;: &#x27;&#x27;, &#x27;cronjob&#x27;: False, &#x27;numthreads&#x27;: None, &#x27;quiet&#x27;: False, &#x27;import_models&#x27;: False, &#x27;timeout&#x27;: 10, &#x27;plain&#x27;: False, &#x27;nobanner&#x27;: False}&gt;</div></td></tr><tr><td style="font-weight:bold;vertical-align:top;">db_sessions</td><td style="vertical-align:top;">:</td><td><div>set([])</div></td></tr><tr><td style="font-weight:bold;vertical-align:top;">debugging</td><td style="vertical-align:top;">:</td><td><div>False</div></td></tr><tr><td style="font-weight:bold;vertical-align:top;">gluon_parent</td><td style="vertical-align:top;">:</td><td><div>/home/mka/web2py</div></td></tr><tr><td style="font-weight:bold;vertical-align:top;">http_accept</td><td style="vertical-align:top;">:</td><td><div>text/html,application/xhtml+xml,application/xml;q=0.9,*/*;q=0.8</div></td></tr><tr><td style="font-weight:bold;vertical-align:top;">http_accept_charset</td><td style="vertical-align:top;">:</td><td><div>ISO-8859-1,utf-8;q=0.7,*;q=0.3</div></td></tr><tr><td style="font-weight:bold;vertical-align:top;">http_accept_encoding</td><td style="vertical-align:top;">:</td><td><div>gzip,deflate,sdch</div></td></tr><tr><td style="font-weight:bold;vertical-align:top;">http_accept_language</td><td style="vertical-align:top;">:</td><td><div>en-US,en;q=0.8</div></td></tr><tr><td style="font-weight:bold;vertical-align:top;">http_cache_control</td><td style="vertical-align:top;">:</td><td><div>max-age=0</div></td></tr><tr><td style="font-weight:bold;vertical-align:top;">http_connection</td><td style="vertical-align:top;">:</td><td><div>keep-alive</div></td></tr><tr><td style="font-weight:bold;vertical-align:top;">http_cookie</td><td style="vertical-align:top;">:</td><td><div>session_id_welcome=127.0.0.1-deca7f36-b2fd-48a3-a192-bbe5444523b1; session_id_admin=127.0.0.1-6f02d9b1-88b7-4387-b206-16b44f48a5dc; session_id_kurssihallinta=127.0.0.1-562407c0-fab4-4e11-ab98-bc29f0c181aa</div></td></tr><tr><td style="font-weight:bold;vertical-align:top;">http_host</td><td style="vertical-align:top;">:</td><td><div>127.0.0.1:8000</div></td></tr><tr><td style="font-weight:bold;vertical-align:top;">http_referer</td><td style="vertical-align:top;">:</td><td><div>http://127.0.0.1:8000/kurssihallinta/default/opettaja_kaikki_kurssit</div></td></tr><tr><td style="font-weight:bold;vertical-align:top;">http_user_agent</td><td style="vertical-align:top;">:</td><td><div>Mozilla/5.0 (X11; Linux i686) AppleWebKit/537.31 (KHTML, like Gecko) Chrome/26.0.1410.63 Safari/537.31</div></td></tr><tr><td style="font-weight:bold;vertical-align:top;">is_jython</td><td style="vertical-align:top;">:</td><td><div>False</div></td></tr><tr><td style="font-weight:bold;vertical-align:top;">is_pypy</td><td style="vertical-align:top;">:</td><td><div>False</div></td></tr><tr><td style="font-weight:bold;vertical-align:top;">is_source</td><td style="vertical-align:top;">:</td><td><div>True</div></td></tr><tr><td style="font-weight:bold;vertical-align:top;">local_hosts</td><td style="vertical-align:top;">:</td><td><div><table><tr><td><div>::ffff:127.0.0.1</div></td></tr><tr><td><div>::1</div></td></tr><tr><td><div>mka3830TG</div></td></tr><tr><td><div>localhost6.localdomain6</div></td></tr><tr><td><div>127.0.1.1</div></td></tr><tr><td><div>127.0.0.1</div></td></tr></table></div></td></tr><tr><td style="font-weight:bold;vertical-align:top;">path_info</td><td style="vertical-align:top;">:</td><td><div>/kurssihallinta/default/oppilas_kaikki_kurssit</div></td></tr><tr><td style="font-weight:bold;vertical-align:top;">query_string</td><td style="vertical-align:top;">:</td><td><div></div></td></tr><tr><td style="font-weight:bold;vertical-align:top;">remote_addr</td><td style="vertical-align:top;">:</td><td><div>127.0.0.1</div></td></tr><tr><td style="font-weight:bold;vertical-align:top;">remote_port</td><td style="vertical-align:top;">:</td><td><div>44311</div></td></tr><tr><td style="font-weight:bold;vertical-align:top;">request_method</td><td style="vertical-align:top;">:</td><td><div>GET</div></td></tr><tr><td style="font-weight:bold;vertical-align:top;">request_uri</td><td style="vertical-align:top;">:</td><td><div>/kurssihallinta/default/oppilas_kaikki_kurssit</div></td></tr><tr><td style="font-weight:bold;vertical-align:top;">script_name</td><td style="vertical-align:top;">:</td><td><div></div></td></tr><tr><td style="font-weight:bold;vertical-align:top;">server_name</td><td style="vertical-align:top;">:</td><td><div>mka3830TG</div></td></tr><tr><td style="font-weight:bold;vertical-align:top;">server_port</td><td style="vertical-align:top;">:</td><td><div>8000</div></td></tr><tr><td style="font-weight:bold;vertical-align:top;">server_protocol</td><td style="vertical-align:top;">:</td><td><div>HTTP/1.1</div></td></tr><tr><td style="font-weight:bold;vertical-align:top;">server_software</td><td style="vertical-align:top;">:</td><td><div>Rocket 1.2.6</div></td></tr><tr><td style="font-weight:bold;vertical-align:top;">web2py_path</td><td style="vertical-align:top;">:</td><td><div>/home/mka/web2py</div></td></tr><tr><td style="font-weight:bold;vertical-align:top;">web2py_version</td><td style="vertical-align:top;">:</td><td><div>2.9.5-stable+timestamp.2014.03.16.02.35.39</div></td></tr><tr><td style="font-weight:bold;vertical-align:top;">wsgi.errors</td><td style="vertical-align:top;">:</td><td><div>&lt;open file &#x27;&lt;stderr&gt;&#x27;, mode &#x27;w&#x27; at 0xb73190d0&gt;</div></td></tr><tr><td style="font-weight:bold;vertical-align:top;">wsgi.file_wrapper</td><td style="vertical-align:top;">:</td><td><div>&lt;class wsgiref.util.FileWrapper at 0x9302bfc&gt;</div></td></tr><tr><td style="font-weight:bold;vertical-align:top;">wsgi.input</td><td style="vertical-align:top;">:</td><td><div>&lt;socket._fileobject object at 0xa7005dac&gt;</div></td></tr><tr><td style="font-weight:bold;vertical-align:top;">wsgi.multiprocess</td><td style="vertical-align:top;">:</td><td><div>False</div></td></tr><tr><td style="font-weight:bold;vertical-align:top;">wsgi.multithread</td><td style="vertical-align:top;">:</td><td><div>True</div></td></tr><tr><td style="font-weight:bold;vertical-align:top;">wsgi.run_once</td><td style="vertical-align:top;">:</td><td><div>False</div></td></tr><tr><td style="font-weight:bold;vertical-align:top;">wsgi.url_scheme</td><td style="vertical-align:top;">:</td><td><div>http</div></td></tr><tr><td style="font-weight:bold;vertical-align:top;">wsgi.version</td><td style="vertical-align:top;">:</td><td><div><table><tr><td><div>1</div></td></tr><tr><td><div>0</div></td></tr></table></div></td></tr><tr><td style="font-weight:bold;vertical-align:top;">wsgi_errors</td><td style="vertical-align:top;">:</td><td><div>&lt;open file &#x27;&lt;stderr&gt;&#x27;, mode &#x27;w&#x27; at 0xb73190d0&gt;</div></td></tr><tr><td style="font-weight:bold;vertical-align:top;">wsgi_file_wrapper</td><td style="vertical-align:top;">:</td><td><div>&lt;class wsgiref.util.FileWrapper at 0x9302bfc&gt;</div></td></tr><tr><td style="font-weight:bold;vertical-align:top;">wsgi_input</td><td style="vertical-align:top;">:</td><td><div>&lt;socket._fileobject object at 0xa7005dac&gt;</div></td></tr><tr><td style="font-weight:bold;vertical-align:top;">wsgi_multiprocess</td><td style="vertical-align:top;">:</td><td><div>False</div></td></tr><tr><td style="font-weight:bold;vertical-align:top;">wsgi_multithread</td><td style="vertical-align:top;">:</td><td><div>True</div></td></tr><tr><td style="font-weight:bold;vertical-align:top;">wsgi_run_once</td><td style="vertical-align:top;">:</td><td><div>False</div></td></tr><tr><td style="font-weight:bold;vertical-align:top;">wsgi_url_scheme</td><td style="vertical-align:top;">:</td><td><div>http</div></td></tr><tr><td style="font-weight:bold;vertical-align:top;">wsgi_version</td><td style="vertical-align:top;">:</td><td><div><table><tr><td><div>1</div></td></tr><tr><td><div>0</div></td></tr></table></div></td></tr></table></div></td></tr><tr><td style="font-weight:bold;vertical-align:top;">extension</td><td style="vertical-align:top;">:</td><td><div>html</div></td></tr><tr><td style="font-weight:bold;vertical-align:top;">folder</td><td style="vertical-align:top;">:</td><td><div>/home/mka/web2py/applications/kurssihallinta/</div></td></tr><tr><td style="font-weight:bold;vertical-align:top;">function</td><td style="vertical-align:top;">:</td><td><div>oppilas_kaikki_kurssit</div></td></tr><tr><td style="font-weight:bold;vertical-align:top;">global_settings</td><td style="vertical-align:top;">:</td><td><div><table><tr><td style="font-weight:bold;vertical-align:top;">app_folders</td><td style="vertical-align:top;">:</td><td><div>set([&#x27;/home/mka/web2py/applications/examples/&#x27;, &#x27;/home/mka/web2py/applications/welcome/&#x27;, &#x27;/home/mka/web2py/applications/admin/&#x27;, &#x27;/home/mka/web2py/applications/kurssihallinta/&#x27;])</div></td></tr><tr><td style="font-weight:bold;vertical-align:top;">applications_parent</td><td style="vertical-align:top;">:</td><td><div>/home/mka/web2py</div></td></tr><tr><td style="font-weight:bold;vertical-align:top;">cmd_args</td><td style="vertical-align:top;">:</td><td><div><table></table></div></td></tr><tr><td style="font-weight:bold;vertical-align:top;">cmd_options</td><td style="vertical-align:top;">:</td><td><div>&lt;Values at 0x9333e4c: {&#x27;verbose&#x27;: False, &#x27;ip&#x27;: &#x27;127.0.0.1&#x27;, &#x27;debuglevel&#x27;: 30, &#x27;with_scheduler&#x27;: False, &#x27;ips&#x27;: [&#x27;::1&#x27;], &#x27;shutdown_timeout&#x27;: 5, &#x27;taskbar&#x27;: False, &#x27;with_coverage&#x27;: False, &#x27;port&#x27;: 8000, &#x27;maxthreads&#x27;: None, &#x27;softcron&#x27;: False, &#x27;server_name&#x27;: &#x27;mka3830TG&#x27;, &#x27;bpython&#x27;: False, &#x27;nogui&#x27;: False, &#x27;pid_filename&#x27;: &#x27;httpserver.pid&#x27;, &#x27;extcron&#x27;: False, &#x27;runcron&#x27;: False, &#x27;run_system_tests&#x27;: False, &#x27;test&#x27;: None, &#x27;folder&#x27;: &#x27;/home/mka/web2py&#x27;, &#x27;config&#x27;: &#x27;&#x27;, &#x27;minthreads&#x27;: None, &#x27;shell&#x27;: None, &#x27;run&#x27;: &#x27;&#x27;, &#x27;log_filename&#x27;: &#x27;httpserver.log&#x27;, &#x27;profiler_dir&#x27;: None, &#x27;args&#x27;: [&#x27;&#x27;], &#x27;socket_timeout&#x27;: 5, &#x27;ssl_ca_certificate&#x27;: None, &#x27;scheduler&#x27;: None, &#x27;interfaces&#x27;: None, &#x27;ssl_private_key&#x27;: &#x27;&#x27;, &#x27;scheduler_groups&#x27;: None, &#x27;password&#x27;: &#x27;&lt;ask&gt;&#x27;, &#x27;request_queue_size&#x27;: 5, &#x27;ssl_certificate&#x27;: &#x27;&#x27;, &#x27;cronjob&#x27;: False, &#x27;numthreads&#x27;: None, &#x27;quiet&#x27;: False, &#x27;import_models&#x27;: False, &#x27;timeout&#x27;: 10, &#x27;plain&#x27;: False, &#x27;nobanner&#x27;: False}&gt;</div></td></tr><tr><td style="font-weight:bold;vertical-align:top;">db_sessions</td><td style="vertical-align:top;">:</td><td><div>set([])</div></td></tr><tr><td style="font-weight:bold;vertical-align:top;">debugging</td><td style="vertical-align:top;">:</td><td><div>False</div></td></tr><tr><td style="font-weight:bold;vertical-align:top;">gluon_parent</td><td style="vertical-align:top;">:</td><td><div>/home/mka/web2py</div></td></tr><tr><td style="font-weight:bold;vertical-align:top;">is_jython</td><td style="vertical-align:top;">:</td><td><div>False</div></td></tr><tr><td style="font-weight:bold;vertical-align:top;">is_pypy</td><td style="vertical-align:top;">:</td><td><div>False</div></td></tr><tr><td style="font-weight:bold;vertical-align:top;">is_source</td><td style="vertical-align:top;">:</td><td><div>True</div></td></tr><tr><td style="font-weight:bold;vertical-align:top;">local_hosts</td><td style="vertical-align:top;">:</td><td><div><table><tr><td><div>::ffff:127.0.0.1</div></td></tr><tr><td><div>::1</div></td></tr><tr><td><div>mka3830TG</div></td></tr><tr><td><div>localhost6.localdomain6</div></td></tr><tr><td><div>127.0.1.1</div></td></tr><tr><td><div>127.0.0.1</div></td></tr></table></div></td></tr><tr><td style="font-weight:bold;vertical-align:top;">web2py_version</td><td style="vertical-align:top;">:</td><td><div>2.9.5-stable+timestamp.2014.03.16.02.35.39</div></td></tr></table></div></td></tr><tr><td style="font-weight:bold;vertical-align:top;">is_https</td><td style="vertical-align:top;">:</td><td><div>False</div></td></tr><tr><td style="font-weight:bold;vertical-align:top;">is_local</td><td style="vertical-align:top;">:</td><td><div>True</div></td></tr><tr><td style="font-weight:bold;vertical-align:top;">is_restful</td><td style="vertical-align:top;">:</td><td><div>False</div></td></tr><tr><td style="font-weight:bold;vertical-align:top;">now</td><td style="vertical-align:top;">:</td><td><div>datetime.datetime(2014, 6, 4, 14, 42, 24, 708578)</div></td></tr><tr><td style="font-weight:bold;vertical-align:top;">raw_args</td><td style="vertical-align:top;">:</td><td><div></div></td></tr><tr><td style="font-weight:bold;vertical-align:top;">raw_extension</td><td style="vertical-align:top;">:</td><td><div>None</div></td></tr><tr><td style="font-weight:bold;vertical-align:top;">url</td><td style="vertical-align:top;">:</td><td><div>/kurssihallinta/default/oppilas_kaikki_kurssit</div></td></tr><tr><td style="font-weight:bold;vertical-align:top;">utcnow</td><td style="vertical-align:top;">:</td><td><div>datetime.datetime(2014, 6, 4, 11, 42, 24, 708599)</div></td></tr><tr><td style="font-weight:bold;vertical-align:top;">uuid</td><td style="vertical-align:top;">:</td><td><div>kurssihallinta/127.0.0.1.2014-06-04.14-42-24.12c11dcb-5322-483f-92fe-c9e86b6f16b2</div></td></tr><tr><td style="font-weight:bold;vertical-align:top;">wsgi</td><td style="vertical-align:top;">:</td><td><div>&lt;gluon.main.LazyWSGI object at 0xa68b93ac&gt;</div></td></tr></table></div>'
tRp58
sS'frames'
p59
(lp60
(dp61
S'file'
p62
S'/home/mka/web2py/gluon/restricted.py'
p63
sS'dump'
p64
(dp65
S'environment'
p66
S"{'A': <class 'gluon.html.A'>, 'ANY_OF': <class 'gluon.validators.ANY_OF'>, 'Auth': <class 'gluon.tools.Auth'>, 'B': <class 'gluon.html.B'>, 'BEAUTIFY': <class 'gluon.html.BEAUTIFY'>, 'BODY': <class 'gluon.html.BODY'>, 'BR': <class 'gluon.html.BR'>, 'BUTTON': <class 'gluon.html.BUTTON'>, 'CAT': <class 'gluon.html.CAT'>, 'CENTER': <class 'gluon.html.CENTER'>, ...}"
p67
sS'ccode'
p68
S'<code object <module> at 0xa7210140, file "/home...ews/default/oppilas_kaikki_kurssit.html", line 1>'
p69
ssS'lnum'
p70
I220
sS'lines'
p71
(dp72
I224
S'        # do not encapsulate (obfuscate) the original RestrictedError'
p73
sI215
S'    try:'
p74
sI216
S'        if isinstance(code, types.CodeType):'
p75
sI217
S'            ccode = code'
p76
sI218
S'        else:'
p77
sI219
S'            ccode = compile2(code, layer)'
p78
sI220
S'        exec ccode in environment'
p79
sI221
S'    except HTTP:'
p80
sI222
S'        raise'
p81
sI223
S'    except RestrictedError:'
p82
ssS'call'
p83
S'(code=r"response.write(\'<html>\\n<body>\\n<head>\\n<div id=...te(\'\\n</head>\\n</body>\\n</html>\\n\', escape=False)", environment={\'A\': <class \'gluon.html.A\'>, \'ANY_OF\': <class \'gluon.validators.ANY_OF\'>, \'Auth\': <class \'gluon.tools.Auth\'>, \'B\': <class \'gluon.html.B\'>, \'BEAUTIFY\': <class \'gluon.html.BEAUTIFY\'>, \'BODY\': <class \'gluon.html.BODY\'>, \'BR\': <class \'gluon.html.BR\'>, \'BUTTON\': <class \'gluon.html.BUTTON\'>, \'CAT\': <class \'gluon.html.CAT\'>, \'CENTER\': <class \'gluon.html.CENTER\'>, ...}, layer=\'/home/mka/web2py/applications/kurssihallinta/views/default/oppilas_kaikki_kurssit.html\')'
p84
sS'func'
p85
S'restricted'
p86
sa(dp87
g62
S'/home/mka/web2py/applications/kurssihallinta/views/default/oppilas_kaikki_kurssit.html'
p88
sg64
(dp89
S'ensin'
p90
S'undefined'
p91
sS'Kurssilista'
p92
g91
sS'h1'
p93
g91
sS'uusin'
p94
g91
ssg70
I2
sg71
(dp95
I1
S'response.write(\'<html>\\n<body>\\n<head>\\n<div id="header">\\n\\n<div id="navigation"> \\n\', escape=False)'
p96
sI2
S'response.write(auth.user.first_name)'
p97
sI3
S"response.write(' ', escape=False)"
p98
sI4
S'response.write(auth.user.last_name)'
p99
sI5
S"response.write(' \\n', escape=False)"
p100
sI6
S"if 'oppilas' in auth.user_groups.values():"
p101
sI7
S'    response.write(\'\\n   <a href="\', escape=False)'
p102
sI8
S"    response.write(URL('default','oppilas_kaikki_kurssit'))"
p103
sI9
S'    response.write(\'">Oppilas omat kurssit</a>\\n\', escape=False)'
p104
sI10
S'    pass'
p105
sI11
S"response.write('\\n', escape=False)"
p106
sI12
S"if 'opettaja' in auth.user_groups.values():"
p107
ssg83
S'()'
p108
sg85
S'<module>'
p109
sasS'pyver'
p110
S'Python 2.7.3: /usr/bin/python (prefix: /usr)'
p111
sS'session'
p112
g57
(S's\x1a\x00\x00\x00<div><table></table></div>'
tRp113
sS'etype'
p114
S"<type 'exceptions.AttributeError'>"
p115
sS'date'
p116
S'Wed Jun  4 14:42:24 2014'
p117
sS'response'
p118
g57
(S's\x061\x00\x00<div><table><tr><td style="font-weight:bold;vertical-align:top;">body</td><td style="vertical-align:top;">:</td><td><div>&lt;cStringIO.StringO object at 0xa6887140&gt;</div></td></tr><tr><td style="font-weight:bold;vertical-align:top;">cookies</td><td style="vertical-align:top;">:</td><td><div><table><tr><td style="font-weight:bold;vertical-align:top;">session_id_kurssihallinta</td><td style="vertical-align:top;">:</td><td><div>127.0.0.1-562407c0-fab4-4e11-ab98-bc29f0c181aa<table><tr><td style="font-weight:bold;vertical-align:top;">comment</td><td style="vertical-align:top;">:</td><td><div></div></td></tr><tr><td style="font-weight:bold;vertical-align:top;">domain</td><td style="vertical-align:top;">:</td><td><div></div></td></tr><tr><td style="font-weight:bold;vertical-align:top;">expires</td><td style="vertical-align:top;">:</td><td><div></div></td></tr><tr><td style="font-weight:bold;vertical-align:top;">httponly</td><td style="vertical-align:top;">:</td><td><div></div></td></tr><tr><td style="font-weight:bold;vertical-align:top;">max-age</td><td style="vertical-align:top;">:</td><td><div></div></td></tr><tr><td style="font-weight:bold;vertical-align:top;">path</td><td style="vertical-align:top;">:</td><td><div>/</div></td></tr><tr><td style="font-weight:bold;vertical-align:top;">secure</td><td style="vertical-align:top;">:</td><td><div></div></td></tr><tr><td style="font-weight:bold;vertical-align:top;">version</td><td style="vertical-align:top;">:</td><td><div></div></td></tr></table></div></td></tr></table></div></td></tr><tr><td style="font-weight:bold;vertical-align:top;">delimiters</td><td style="vertical-align:top;">:</td><td><div><table><tr><td><div>{{</div></td></tr><tr><td><div>}}</div></td></tr></table></div></td></tr><tr><td style="font-weight:bold;vertical-align:top;">files</td><td style="vertical-align:top;">:</td><td><div><table></table></div></td></tr><tr><td style="font-weight:bold;vertical-align:top;">flash</td><td style="vertical-align:top;">:</td><td><div></div></td></tr><tr><td style="font-weight:bold;vertical-align:top;">generic_patterns</td><td style="vertical-align:top;">:</td><td><div><table></table></div></td></tr><tr><td style="font-weight:bold;vertical-align:top;">google_analytics_id</td><td style="vertical-align:top;">:</td><td><div>None</div></td></tr><tr><td style="font-weight:bold;vertical-align:top;">headers</td><td style="vertical-align:top;">:</td><td><div><table><tr><td style="font-weight:bold;vertical-align:top;">X-Powered-By</td><td style="vertical-align:top;">:</td><td><div>web2py</div></td></tr></table></div></td></tr><tr><td style="font-weight:bold;vertical-align:top;">menu</td><td style="vertical-align:top;">:</td><td><div><table><tr><td><div><table><tr><td><div>Home</div></td></tr><tr><td><div>False</div></td></tr><tr><td><div>/kurssihallinta/default/index</div></td></tr><tr><td><div><table></table></div></td></tr></table></div></td></tr><tr><td><div><table><tr><td><div><span style="color:yellow">web2py</span></div></td></tr><tr><td><div>False</div></td></tr><tr><td><div>None</div></td></tr><tr><td><div><table><tr><td><div><table><tr><td><div>My Sites</div></td></tr><tr><td><div>False</div></td></tr><tr><td><div>/admin/default/site</div></td></tr></table></div></td></tr><tr><td><div><table><tr><td><div>This App</div></td></tr><tr><td><div>False</div></td></tr><tr><td><div>/admin/default/design/kurssihallinta</div></td></tr><tr><td><div>[(&lt;lazyT &#x27;Controller&#x27;&gt;, False, &#x27;/admin/default/edit/kurssihallinta/controllers/default.py&#x27;), (&lt;lazyT &#x27;View&#x27;&gt;, False, &#x27;/admin/default/edit/kurssihallinta/views/default/oppilas_kaikki_kurssit.html&#x27;), (&lt;lazyT &#x27;Layout&#x27;&gt;, False, &#x27;/admin/default/edit/kurssihallinta/views/layout.html&#x27;), (&lt;lazyT &#x27;Stylesheet&#x27;&gt;, False, &#x27;/admin/default/edit/kurssihallinta/static/css/web2py.css&#x27;), (&lt;lazyT &#x27;DB Model&#x27;&gt;, False, &#x27;/admin/default/edit/kurssihallinta/models/db.py&#x27;), (&lt;lazyT &#x27;Menu Model&#x27;&gt;, False, &#x27;/admin/default/edit/kurssihallinta/models/menu.py&#x27;), (&lt;lazyT &#x27;Database&#x27;&gt;, False, &#x27;/kurssihallinta/appadmin/index&#x27;), (&lt;lazyT &#x27;Errors&#x27;&gt;, False, &#x27;/admin/default/errors/kurssihallinta&#x27;), (&lt;lazyT &#x27;About&#x27;&gt;, False, &#x27;/admin/default/about/kurssihallinta&#x27;)]</div></td></tr></table></div></td></tr><tr><td><div><table><tr><td><div>web2py.com</div></td></tr><tr><td><div>False</div></td></tr><tr><td><div>http://www.web2py.com</div></td></tr><tr><td><div>[(&lt;lazyT &#x27;Download&#x27;&gt;, False, &#x27;http://www.web2py.com/examples/default/download&#x27;), (&lt;lazyT &#x27;Support&#x27;&gt;, False, &#x27;http://www.web2py.com/examples/default/support&#x27;), (&lt;lazyT &#x27;Demo&#x27;&gt;, False, &#x27;http://web2py.com/demo_admin&#x27;), (&lt;lazyT &#x27;Quick Examples&#x27;&gt;, False, &#x27;http://web2py.com/examples/default/examples&#x27;), (&lt;lazyT &#x27;FAQ&#x27;&gt;, False, &#x27;http://web2py.com/AlterEgo&#x27;), (&lt;lazyT &#x27;Videos&#x27;&gt;, False, &#x27;http://www.web2py.com/examples/default/videos/&#x27;), (&lt;lazyT &#x27;Free Applications&#x27;&gt;, False, &#x27;http://web2py.com/appliances&#x27;), (&lt;lazyT &#x27;Plugins&#x27;&gt;, False, &#x27;http://web2py.com/plugins&#x27;), (&lt;lazyT &#x27;Layouts&#x27;&gt;, False, &#x27;http://web2py.com/layouts&#x27;), (&lt;lazyT &#x27;Recipes&#x27;&gt;, False, &#x27;http://web2pyslices.com/&#x27;), (&lt;lazyT &#x27;Semantic&#x27;&gt;, False, &#x27;http://web2py.com/semantic&#x27;)]</div></td></tr></table></div></td></tr><tr><td><div><table><tr><td><div>Documentation</div></td></tr><tr><td><div>False</div></td></tr><tr><td><div>http://www.web2py.com/book</div></td></tr><tr><td><div>[(&lt;lazyT &#x27;Preface&#x27;&gt;, False, &#x27;http://www.web2py.com/book/default/chapter/00&#x27;), (&lt;lazyT &#x27;Introduction&#x27;&gt;, False, &#x27;http://www.web2py.com/book/default/chapter/01&#x27;), (&lt;lazyT &#x27;Python&#x27;&gt;, False, &#x27;http://www.web2py.com/book/default/chapter/02&#x27;), (&lt;lazyT &#x27;Overview&#x27;&gt;, False, &#x27;http://www.web2py.com/book/default/chapter/03&#x27;), (&lt;lazyT &#x27;The Core&#x27;&gt;, False, &#x27;http://www.web2py.com/book/default/chapter/04&#x27;), (&lt;lazyT &#x27;The Views&#x27;&gt;, False, &#x27;http://www.web2py.com/book/default/chapter/05&#x27;), (&lt;lazyT &#x27;Database&#x27;&gt;, False, &#x27;http://www.web2py.com/book/default/chapter/06&#x27;), (&lt;lazyT &#x27;Forms and Validators&#x27;&gt;, False, &#x27;http://www.web2py.com/book/default/chapter/07&#x27;), (&lt;lazyT &#x27;Email and SMS&#x27;&gt;, False, &#x27;http://www.web2py.com/book/default/chapter/08&#x27;), (&lt;lazyT &#x27;Access Control&#x27;&gt;, False, &#x27;http://www.web2py.com/book/default/chapter/09&#x27;), (&lt;lazyT &#x27;Services&#x27;&gt;, False, &#x27;http://www.web2py.com/book/default/chapter/10&#x27;), (&lt;lazyT &#x27;Ajax Recipes&#x27;&gt;, False, &#x27;http://www.web2py.com/book/default/chapter/11&#x27;), (&lt;lazyT &#x27;Components and Plugins&#x27;&gt;, False, &#x27;http://www.web2py.com/book/default/chapter/12&#x27;), (&lt;lazyT &#x27;Deployment Recipes&#x27;&gt;, False, &#x27;http://www.web2py.com/book/default/chapter/13&#x27;), (&lt;lazyT &#x27;Other Recipes&#x27;&gt;, False, &#x27;http://www.web2py.com/book/default/chapter/14&#x27;), (&lt;lazyT &#x27;Buy this book&#x27;&gt;, False, &#x27;http://stores.lulu.com/web2py&#x27;)]</div></td></tr></table></div></td></tr><tr><td><div><table><tr><td><div>Community</div></td></tr><tr><td><div>False</div></td></tr><tr><td><div>None</div></td></tr><tr><td><div>[(&lt;lazyT &#x27;Groups&#x27;&gt;, False, &#x27;http://www.web2py.com/examples/default/usergroups&#x27;), (&lt;lazyT &#x27;Twitter&#x27;&gt;, False, &#x27;http://twitter.com/web2py&#x27;), (&lt;lazyT &#x27;Live Chat&#x27;&gt;, False, &#x27;http://webchat.freenode.net/?channels=web2py&#x27;)]</div></td></tr></table></div></td></tr><tr><td><div><table><tr><td><div>Plugins</div></td></tr><tr><td><div>False</div></td></tr><tr><td><div>None</div></td></tr><tr><td><div>[(&#x27;plugin_wiki&#x27;, False, &#x27;http://web2py.com/examples/default/download&#x27;), (&lt;lazyT &#x27;Other Plugins&#x27;&gt;, False, &#x27;http://web2py.com/plugins&#x27;), (&lt;lazyT &#x27;Layout Plugins&#x27;&gt;, False, &#x27;http://web2py.com/layouts&#x27;)]</div></td></tr></table></div></td></tr></table></div></td></tr></table></div></td></tr></table></div></td></tr><tr><td style="font-weight:bold;vertical-align:top;">meta</td><td style="vertical-align:top;">:</td><td><div><table><tr><td style="font-weight:bold;vertical-align:top;">author</td><td style="vertical-align:top;">:</td><td><div>Your Name &lt;you@example.com&gt;</div></td></tr><tr><td style="font-weight:bold;vertical-align:top;">copyright</td><td style="vertical-align:top;">:</td><td><div>Copyright 2011</div></td></tr><tr><td style="font-weight:bold;vertical-align:top;">description</td><td style="vertical-align:top;">:</td><td><div>a cool new app</div></td></tr><tr><td style="font-weight:bold;vertical-align:top;">generator</td><td style="vertical-align:top;">:</td><td><div>Web2py Web Framework</div></td></tr><tr><td style="font-weight:bold;vertical-align:top;">keywords</td><td style="vertical-align:top;">:</td><td><div>web2py, python, framework</div></td></tr></table></div></td></tr><tr><td style="font-weight:bold;vertical-align:top;">models_to_run</td><td style="vertical-align:top;">:</td><td><div><table><tr><td><div>^\\w+\\.py$</div></td></tr><tr><td><div>^default/\\w+\\.py$</div></td></tr><tr><td><div>^default/oppilas_kaikki_kurssit/\\w+\\.py$</div></td></tr></table></div></td></tr><tr><td style="font-weight:bold;vertical-align:top;">postprocessing</td><td style="vertical-align:top;">:</td><td><div><table></table></div></td></tr><tr><td style="font-weight:bold;vertical-align:top;">session_client</td><td style="vertical-align:top;">:</td><td><div>127.0.0.1</div></td></tr><tr><td style="font-weight:bold;vertical-align:top;">session_cookie_compression_level</td><td style="vertical-align:top;">:</td><td><div>None</div></td></tr><tr><td style="font-weight:bold;vertical-align:top;">session_cookie_expires</td><td style="vertical-align:top;">:</td><td><div>None</div></td></tr><tr><td style="font-weight:bold;vertical-align:top;">session_cookie_key</td><td style="vertical-align:top;">:</td><td><div>None</div></td></tr><tr><td style="font-weight:bold;vertical-align:top;">session_data_name</td><td style="vertical-align:top;">:</td><td><div>session_data_kurssihallinta</div></td></tr><tr><td style="font-weight:bold;vertical-align:top;">session_filename</td><td style="vertical-align:top;">:</td><td><div>/home/mka/web2py/applications/kurssihallinta/sessions/127.0.0.1-d84502a3-4c99-400d-8c43-cdab16b6b37b</div></td></tr><tr><td style="font-weight:bold;vertical-align:top;">session_hash</td><td style="vertical-align:top;">:</td><td><div>5168386b88eca15bbe5c0062022ad6cd</div></td></tr><tr><td style="font-weight:bold;vertical-align:top;">session_id</td><td style="vertical-align:top;">:</td><td><div>127.0.0.1-d84502a3-4c99-400d-8c43-cdab16b6b37b</div></td></tr><tr><td style="font-weight:bold;vertical-align:top;">session_id_name</td><td style="vertical-align:top;">:</td><td><div>session_id_kurssihallinta</div></td></tr><tr><td style="font-weight:bold;vertical-align:top;">session_locked</td><td style="vertical-align:top;">:</td><td><div>False</div></td></tr><tr><td style="font-weight:bold;vertical-align:top;">session_masterapp</td><td style="vertical-align:top;">:</td><td><div>kurssihallinta</div></td></tr><tr><td style="font-weight:bold;vertical-align:top;">session_new</td><td style="vertical-align:top;">:</td><td><div>True</div></td></tr><tr><td style="font-weight:bold;vertical-align:top;">session_storage_type</td><td style="vertical-align:top;">:</td><td><div>file</div></td></tr><tr><td style="font-weight:bold;vertical-align:top;">status</td><td style="vertical-align:top;">:</td><td><div>200</div></td></tr><tr><td style="font-weight:bold;vertical-align:top;">subtitle</td><td style="vertical-align:top;">:</td><td><div> </div></td></tr><tr><td style="font-weight:bold;vertical-align:top;">title</td><td style="vertical-align:top;">:</td><td><div>Kurssihallinta</div></td></tr><tr><td style="font-weight:bold;vertical-align:top;">view</td><td style="vertical-align:top;">:</td><td><div>default/oppilas_kaikki_kurssit.html</div></td></tr></table></div>'
tRp119
sS'locals'
p120
(dp121
S'OBJECT'
p122
S"<class 'gluon.html.OBJECT'>"
p123
sS'SQLDB'
p124
S"<class 'gluon.dal.DAL'>"
p125
sS'kurssit'
p126
S'<Rows (2)>'
p127
sg112
S'<Storage {}>'
p128
sS'LINK'
p129
S"<class 'gluon.html.LINK'>"
p130
sS'BR'
p131
S"<class 'gluon.html.BR'>"
p132
sS'local_import'
p133
S'<function <lambda>>'
p134
sS'OPTGROUP'
p135
S"<class 'gluon.html.OPTGROUP'>"
p136
sS'__package__'
p137
S'None'
p138
sS'PRE'
p139
S"<class 'gluon.html.PRE'>"
p140
sS'IS_INT_IN_RANGE'
p141
S"<class 'gluon.validators.IS_INT_IN_RANGE'>"
p142
sS'IS_LOWER'
p143
S"<class 'gluon.validators.IS_LOWER'>"
p144
sS'IS_STRONG'
p145
S"<class 'gluon.validators.IS_STRONG'>"
p146
sS'cache'
p147
S'<gluon.cache.Cache object>'
p148
sS'IS_IN_DB'
p149
S"<class 'gluon.validators.IS_IN_DB'>"
p150
sS'TAG'
p151
S'<gluon.html.__TAG__ object>'
p152
sS'SQLField'
p153
S"<class 'gluon.dal.Field'>"
p154
sS'BODY'
p155
S"<class 'gluon.html.BODY'>"
p156
sS'IS_DATE_IN_RANGE'
p157
S"<class 'gluon.validators.IS_DATE_IN_RANGE'>"
p158
sS'TH'
p159
S"<class 'gluon.html.TH'>"
p160
sS'URL'
p161
S'<function URL>'
p162
sS'__file__'
p163
S"'/home/mka/web2py/applications/kurssihallinta/views/default/oppilas_kaikki_kurssit.html'"
p164
sS'db'
p165
S'<DAL uri="sqlite://storage.sqlite">'
p166
sS'auth'
p167
S'<gluon.tools.Auth object>'
p168
sS'P'
S"<class 'gluon.html.P'>"
p169
sS'TFOOT'
p170
S"<class 'gluon.html.TFOOT'>"
p171
sS'XHTML'
p172
S"<class 'gluon.html.XHTML'>"
p173
sS'ON'
p174
S'True'
p175
sS'OL'
p176
S"<class 'gluon.html.OL'>"
p177
sS'TEXTAREA'
p178
S"<class 'gluon.html.TEXTAREA'>"
p179
sS'MENU'
p180
S"<class 'gluon.html.MENU'>"
p181
sS'EM'
p182
S"<class 'gluon.html.EM'>"
p183
sS'CODE'
p184
S"<class 'gluon.html.CODE'>"
p185
sS'HTTP'
p186
S"<class 'gluon.http.HTTP'>"
p187
sS'HR'
p188
S"<class 'gluon.html.HR'>"
p189
sS'IS_DATETIME'
p190
S"<class 'gluon.validators.IS_DATETIME'>"
p191
sS'HEAD'
p192
S"<class 'gluon.html.HEAD'>"
p193
sS'LABEL'
p194
S"<class 'gluon.html.LABEL'>"
p195
sS'CLEANUP'
p196
S"<class 'gluon.validators.CLEANUP'>"
p197
sS'SELECT'
p198
S"<class 'gluon.html.SELECT'>"
p199
sS'CENTER'
p200
S"<class 'gluon.html.CENTER'>"
p201
sS'Auth'
p202
S"<class 'gluon.tools.Auth'>"
p203
sS'__builtins__'
p204
S"{'ArithmeticError': <type 'exceptions.ArithmeticError'>, 'AssertionError': <type 'exceptions.AssertionError'>, 'AttributeError': <type 'exceptions.AttributeError'>, 'BaseException': <type 'exceptions.BaseException'>, 'BufferError': <type 'exceptions.BufferError'>, 'BytesWarning': <type 'exceptions.BytesWarning'>, 'DeprecationWarning': <type 'exceptions.DeprecationWarning'>, 'EOFError': <type 'exceptions.EOFError'>, 'Ellipsis': Ellipsis, 'EnvironmentError': <type 'exceptions.EnvironmentError'>, ...}"
p205
sS'HTML'
p206
S"<class 'gluon.html.HTML'>"
p207
sS'SQLFORM'
p208
S"<class 'gluon.sqlhtml.SQLFORM'>"
p209
sS'LOAD'
p210
S'<function LOAD>'
p211
sS'redirect'
p212
S'<function redirect>'
p213
sS'FIELDSET'
p214
S"<class 'gluon.html.FIELDSET'>"
p215
sS'IS_EQUAL_TO'
p216
S"<class 'gluon.validators.IS_EQUAL_TO'>"
p217
sS'embed64'
p218
S'<function embed64>'
p219
sS'IS_LIST_OF'
p220
S"<class 'gluon.validators.IS_LIST_OF'>"
p221
sS'__name__'
p222
S"'__restricted__'"
p223
sS'EMBED'
p224
S"<class 'gluon.html.EMBED'>"
p225
sS'_'
S'<function _>'
p226
sS'FORM'
p227
S"<class 'gluon.html.FORM'>"
p228
sS'H2'
p229
S"<class 'gluon.html.H2'>"
p230
sS'H3'
p231
S"<class 'gluon.html.H3'>"
p232
sS'BUTTON'
p233
S"<class 'gluon.html.BUTTON'>"
p234
sS'H1'
p235
S"<class 'gluon.html.H1'>"
p236
sS'H6'
p237
S"<class 'gluon.html.H6'>"
p238
sS'H4'
p239
S"<class 'gluon.html.H4'>"
p240
sS'H5'
p241
S"<class 'gluon.html.H5'>"
p242
sS'UL'
p243
S"<class 'gluon.html.UL'>"
p244
sS'IS_UPPER'
p245
S"<class 'gluon.validators.IS_UPPER'>"
p246
sS'xmlescape'
p247
S'<function xmlescape>'
p248
sS'IS_TIME'
p249
S"<class 'gluon.validators.IS_TIME'>"
p250
sS'OPTION'
p251
S"<class 'gluon.html.OPTION'>"
p252
sS'TITLE'
p253
S"<class 'gluon.html.TITLE'>"
p254
sS'CRYPT'
p255
S"<class 'gluon.validators.CRYPT'>"
p256
sS'IS_EMPTY_OR'
p257
S"<class 'gluon.validators.IS_EMPTY_OR'>"
p258
sS'MARKMIN'
p259
S"<class 'gluon.html.MARKMIN'>"
p260
sS'INPUT'
p261
S"<class 'gluon.html.INPUT'>"
p262
sS'STRONG'
p263
S"<class 'gluon.html.STRONG'>"
p264
sS'COL'
p265
S"<class 'gluon.html.COL'>"
p266
sS'SCRIPT'
p267
S"<class 'gluon.html.SCRIPT'>"
p268
sS'oppilaita_kurssilla'
p269
S'2'
sS'TABLE'
p270
S"<class 'gluon.html.TABLE'>"
p271
sS'IS_IPV4'
p272
S"<class 'gluon.validators.IS_IPV4'>"
p273
sS'IS_LENGTH'
p274
S"<class 'gluon.validators.IS_LENGTH'>"
p275
sS'IS_IPV6'
p276
S"<class 'gluon.validators.IS_IPV6'>"
p277
sS'XML'
p278
S"<class 'gluon.html.XML'>"
p279
sS'B'
S"<class 'gluon.html.B'>"
p280
sS'IMG'
p281
S"<class 'gluon.html.IMG'>"
p282
sS'SQLTABLE'
p283
S"<class 'gluon.sqlhtml.SQLTABLE'>"
p284
sS'IS_MATCH'
p285
S"<class 'gluon.validators.IS_MATCH'>"
p286
sS'IS_ALPHANUMERIC'
p287
S"<class 'gluon.validators.IS_ALPHANUMERIC'>"
p288
sS'SPAN'
p289
S"<class 'gluon.html.SPAN'>"
p290
sS'IS_JSON'
p291
S"<class 'gluon.validators.IS_JSON'>"
p292
sS'IS_IPADDRESS'
p293
S"<class 'gluon.validators.IS_IPADDRESS'>"
p294
sS'IS_SLUG'
p295
S"<class 'gluon.validators.IS_SLUG'>"
p296
sS'BEAUTIFY'
p297
S"<class 'gluon.html.BEAUTIFY'>"
p298
sS'META'
p299
S"<class 'gluon.html.META'>"
p300
sS'IS_DATE'
p301
S"<class 'gluon.validators.IS_DATE'>"
p302
sS'IS_EMAIL'
p303
S"<class 'gluon.validators.IS_EMAIL'>"
p304
sS'IS_NOT_EMPTY'
p305
S"<class 'gluon.validators.IS_NOT_EMPTY'>"
p306
sS'IS_FLOAT_IN_RANGE'
p307
S"<class 'gluon.validators.IS_FLOAT_IN_RANGE'>"
p308
sS'TBODY'
p309
S"<class 'gluon.html.TBODY'>"
p310
sS'CAT'
p311
S"<class 'gluon.html.CAT'>"
p312
sS'Field'
p313
S"<class 'gluon.dal.Field'>"
p314
sS'IS_LIST_OF_EMAILS'
p315
S"<class 'gluon.validators.IS_LIST_OF_EMAILS'>"
p316
sS'DIV'
p317
S"<class 'gluon.html.DIV'>"
p318
sS'LEGEND'
p319
S"<class 'gluon.html.LEGEND'>"
p320
sS'COLGROUP'
p321
S"<class 'gluon.html.COLGROUP'>"
p322
sS'DAL'
p323
S"<class 'gluon.dal.DAL'>"
p324
sS'TT'
p325
S"<class 'gluon.html.TT'>"
p326
sS'TR'
p327
S"<class 'gluon.html.TR'>"
p328
sS'LI'
p329
S"<class 'gluon.html.LI'>"
p330
sS'IFRAME'
p331
S"<class 'gluon.html.IFRAME'>"
p332
sS'TD'
p333
S"<class 'gluon.html.TD'>"
p334
sS'IS_URL'
p335
S"<class 'gluon.validators.IS_URL'>"
p336
sS'A'
S"<class 'gluon.html.A'>"
p337
sS'STYLE'
p338
S"<class 'gluon.html.STYLE'>"
p339
sS'IS_DATETIME_IN_RANGE'
p340
S"<class 'gluon.validators.IS_DATETIME_IN_RANGE'>"
p341
sS'IS_IMAGE'
p342
S"<class 'gluon.validators.IS_IMAGE'>"
p343
sS'I'
S"<class 'gluon.html.I'>"
p344
sS'IS_NOT_IN_DB'
p345
S"<class 'gluon.validators.IS_NOT_IN_DB'>"
p346
sg118
S"<Storage {'body': <cStringIO.StringO object at 0..., 'view': 'default/oppilas_kaikki_kurssit.html'}>"
p347
sS'THEAD'
p348
S"<class 'gluon.html.THEAD'>"
p349
sS'ANY_OF'
p350
S"<class 'gluon.validators.ANY_OF'>"
p351
sS'IS_NULL_OR'
p352
S"<class 'gluon.validators.IS_EMPTY_OR'>"
p353
sg56
S"<Storage {'_vars': None, 'function': 'oppilas_ka...'/home/mka/web2py/applications/kurssihallinta/'}>"
p354
sS'IS_EXPR'
p355
S"<class 'gluon.validators.IS_EXPR'>"
p356
sS'T'
S'<gluon.languages.translator object>'
p357
sS'IS_IN_SET'
p358
S"<class 'gluon.validators.IS_IN_SET'>"
p359
sS'IS_UPLOAD_FILENAME'
p360
S"<class 'gluon.validators.IS_UPLOAD_FILENAME'>"
p361
sS'IS_DECIMAL_IN_RANGE'
p362
S"<class 'gluon.validators.IS_DECIMAL_IN_RANGE'>"
p363
sssS'traceback'
p364
S'Traceback (most recent call last):\n  File "/home/mka/web2py/gluon/restricted.py", line 220, in restricted\n    exec ccode in environment\n  File "/home/mka/web2py/applications/kurssihallinta/views/default/oppilas_kaikki_kurssit.html", line 2, in <module>\n    <h1>Kurssilista (uusin ensin)</h1>\nAttributeError: \'NoneType\' object has no attribute \'first_name\'\n'
p365
s.