(dp1
S'output'
p2
S"<type 'exceptions.SyntaxError'> Field: unknown field type: float for arvosana"
p3
sS'layer'
p4
S'/home/mka/web2py/applications/kurssihallinta/models/db.py'
p5
sS'code'
p6
S'# -*- coding: utf-8 -*-\n\ndb = DAL("sqlite://storage.sqlite")\n\ndb.define_table(\'kurssityo\',\n   Field(\'title\', unique=True),\n   Field(\'palautettu\', \'upload\'),\n   Field(\'korjattu\', \'upload\'),\n   Field(\'arvosana\',\'float\'),\n   format = \'%(title)s\')\n\ndb.define_table(\'systeemi\',\n   Field(\'kirjautunut\'),\n   Field(\'viimeisin_bacup\',date))\n\n\ndb.kurssityo.title.requires = IS_NOT_IN_DB(db, db.kurssityo.title)\ndb.post.image_id.requires = IS_IN_DB(db, db.image.id, \'%(title)s\')\ndb.post.author.requires = IS_NOT_EMPTY()\ndb.post.email.requires = IS_EMAIL()\ndb.post.body.requires = IS_NOT_EMPTY()\n\ndb.post.image_id.writable = db.post.image_id.readable = False\n'
p7
sS'snapshot'
p8
(dp9
S'exception'
p10
(dp11
S'__getslice__'
p12
S"<method-wrapper '__getslice__' of exceptions.SyntaxError object>"
p13
sS'text'
p14
S'None'
p15
sS'__str__'
p16
S"<method-wrapper '__str__' of exceptions.SyntaxError object>"
p17
sS'__reduce__'
p18
S'<built-in method __reduce__ of exceptions.SyntaxError object>'
p19
sS'__dict__'
p20
S'{}'
p21
sS'__sizeof__'
p22
S'<built-in method __sizeof__ of exceptions.SyntaxError object>'
p23
sS'__init__'
p24
S"<method-wrapper '__init__' of exceptions.SyntaxError object>"
p25
sS'__setattr__'
p26
S"<method-wrapper '__setattr__' of exceptions.SyntaxError object>"
p27
sS'__reduce_ex__'
p28
S'<built-in method __reduce_ex__ of exceptions.SyntaxError object>'
p29
sS'__new__'
p30
S'<built-in method __new__ of type object>'
p31
sS'__format__'
p32
S'<built-in method __format__ of exceptions.SyntaxError object>'
p33
sS'__class__'
p34
S"<type 'exceptions.SyntaxError'>"
p35
sS'filename'
p36
S'None'
p37
sS'lineno'
p38
S'None'
p39
sS'msg'
p40
S"'Field: unknown field type: float for arvosana'"
p41
sS'__doc__'
p42
S"'Invalid syntax.'"
p43
sS'__getitem__'
p44
S"<method-wrapper '__getitem__' of exceptions.SyntaxError object>"
p45
sS'__setstate__'
p46
S'<built-in method __setstate__ of exceptions.SyntaxError object>'
p47
sS'__getattribute__'
p48
S"<method-wrapper '__getattribute__' of exceptions.SyntaxError object>"
p49
sS'print_file_and_line'
p50
S'None'
p51
sS'args'
p52
S"('Field: unknown field type: float for arvosana',)"
p53
sS'__subclasshook__'
p54
S'<built-in method __subclasshook__ of type object>'
p55
sS'offset'
p56
S'None'
p57
sS'__unicode__'
p58
S'<built-in method __unicode__ of exceptions.SyntaxError object>'
p59
sS'__delattr__'
p60
S"<method-wrapper '__delattr__' of exceptions.SyntaxError object>"
p61
sS'__repr__'
p62
S"<method-wrapper '__repr__' of exceptions.SyntaxError object>"
p63
sS'__hash__'
p64
S"<method-wrapper '__hash__' of exceptions.SyntaxError object>"
p65
ssS'evalue'
p66
S'Field: unknown field type: float for arvosana'
p67
sS'request'
p68
ccopy_reg
_reconstructor
p69
(cgluon.html
BEAUTIFY
p70
c__builtin__
object
p71
NtRp72
(dp73
S'attributes'
p74
(dp75
sS'components'
p76
(lp77
g69
(cgluon.html
TABLE
p78
g71
NtRp79
(dp80
g74
(dp81
S'level'
p82
I5
ssS'parent'
p83
Nsg76
(lp84
g69
(cgluon.html
TR
p85
g71
NtRp86
(dp87
g74
(dp88
sg83
g79
sg76
(lp89
g69
(cgluon.html
TD
p90
g71
NtRp91
(dp92
g74
(dp93
S'_style'
p94
S'font-weight:bold;vertical-align:top'
p95
ssg83
g86
sg76
(lp96
S'ajax'
p97
asbag69
(g90
g71
NtRp98
(dp99
g74
(dp100
S'_valign'
p101
S'top'
p102
ssg83
g86
sg76
(lp103
S':'
asbag69
(g90
g71
NtRp104
(dp105
g74
(dp106
sg83
g86
sg76
(lp107
g69
(g70
g71
NtRp108
(dp109
g74
(dp110
g82
I5
ssg83
g104
sg76
(lp111
S'False'
p112
asbasbasbag69
(g85
g71
NtRp113
(dp114
g74
(dp115
sg83
g79
sg76
(lp116
g69
(g90
g71
NtRp117
(dp118
g74
(dp119
g94
g95
ssg83
g113
sg76
(lp120
S'application'
p121
asbag69
(g90
g71
NtRp122
(dp123
g74
(dp124
g101
g102
ssg83
g113
sg76
(lp125
S':'
asbag69
(g90
g71
NtRp126
(dp127
g74
(dp128
sg83
g113
sg76
(lp129
g69
(g70
g71
NtRp130
(dp131
g74
(dp132
g82
I5
ssg83
g126
sg76
(lp133
S'kurssihallinta'
p134
asbasbasbag69
(g85
g71
NtRp135
(dp136
g74
(dp137
sg83
g79
sg76
(lp138
g69
(g90
g71
NtRp139
(dp140
g74
(dp141
g94
g95
ssg83
g135
sg76
(lp142
g52
asbag69
(g90
g71
NtRp143
(dp144
g74
(dp145
g101
g102
ssg83
g135
sg76
(lp146
S':'
asbag69
(g90
g71
NtRp147
(dp148
g74
(dp149
sg83
g135
sg76
(lp150
g69
(g70
g71
NtRp151
(dp152
g74
(dp153
g82
I5
ssg83
g147
sg76
(lp154
g69
(g78
g71
NtRp155
(dp156
g74
(dp157
g82
I4
ssg83
Nsg76
(lp158
sbasbasbasbag69
(g85
g71
NtRp159
(dp160
g74
(dp161
sg83
g79
sg76
(lp162
g69
(g90
g71
NtRp163
(dp164
g74
(dp165
g94
g95
ssg83
g159
sg76
(lp166
S'body'
p167
asbag69
(g90
g71
NtRp168
(dp169
g74
(dp170
g101
g102
ssg83
g159
sg76
(lp171
S':'
asbag69
(g90
g71
NtRp172
(dp173
g74
(dp174
sg83
g159
sg76
(lp175
g69
(g70
g71
NtRp176
(dp177
g74
(dp178
g82
I5
ssg83
g172
sg76
(lp179
S'<cStringIO.StringO object at 0xb0445a20>'
p180
asbasbasbag69
(g85
g71
NtRp181
(dp182
g74
(dp183
sg83
g79
sg76
(lp184
g69
(g90
g71
NtRp185
(dp186
g74
(dp187
g94
g95
ssg83
g181
sg76
(lp188
S'client'
p189
asbag69
(g90
g71
NtRp190
(dp191
g74
(dp192
g101
g102
ssg83
g181
sg76
(lp193
S':'
asbag69
(g90
g71
NtRp194
(dp195
g74
(dp196
sg83
g181
sg76
(lp197
g69
(g70
g71
NtRp198
(dp199
g74
(dp200
g82
I5
ssg83
g194
sg76
(lp201
S'127.0.0.1'
p202
asbasbasbag69
(g85
g71
NtRp203
(dp204
g74
(dp205
sg83
g79
sg76
(lp206
g69
(g90
g71
NtRp207
(dp208
g74
(dp209
g94
g95
ssg83
g203
sg76
(lp210
S'controller'
p211
asbag69
(g90
g71
NtRp212
(dp213
g74
(dp214
g101
g102
ssg83
g203
sg76
(lp215
S':'
asbag69
(g90
g71
NtRp216
(dp217
g74
(dp218
sg83
g203
sg76
(lp219
g69
(g70
g71
NtRp220
(dp221
g74
(dp222
g82
I5
ssg83
g216
sg76
(lp223
S'default'
p224
asbasbasbag69
(g85
g71
NtRp225
(dp226
g74
(dp227
sg83
g79
sg76
(lp228
g69
(g90
g71
NtRp229
(dp230
g74
(dp231
g94
g95
ssg83
g225
sg76
(lp232
S'cookies'
p233
asbag69
(g90
g71
NtRp234
(dp235
g74
(dp236
g101
g102
ssg83
g225
sg76
(lp237
S':'
asbag69
(g90
g71
NtRp238
(dp239
g74
(dp240
sg83
g225
sg76
(lp241
g69
(g70
g71
NtRp242
(dp243
g74
(dp244
g82
I5
ssg83
g238
sg76
(lp245
g69
(g78
g71
NtRp246
(dp247
g74
(dp248
g82
I4
ssg83
Nsg76
(lp249
g69
(g85
g71
NtRp250
(dp251
g74
(dp252
sg83
g246
sg76
(lp253
g69
(g90
g71
NtRp254
(dp255
g74
(dp256
g94
g95
ssg83
g250
sg76
(lp257
S'session_id_admin'
p258
asbag69
(g90
g71
NtRp259
(dp260
g74
(dp261
g101
g102
ssg83
g250
sg76
(lp262
S':'
asbag69
(g90
g71
NtRp263
(dp264
g74
(dp265
sg83
g250
sg76
(lp266
g69
(g70
g71
NtRp267
(dp268
g74
(dp269
g82
I4
ssg83
g263
sg76
(lp270
g69
(g78
g71
NtRp271
(dp272
g74
(dp273
g82
I3
ssg83
Nsg76
(lp274
g69
(g85
g71
NtRp275
(dp276
g74
(dp277
sg83
g271
sg76
(lp278
g69
(g90
g71
NtRp279
(dp280
g74
(dp281
g94
g95
ssg83
g275
sg76
(lp282
S'comment'
p283
asbag69
(g90
g71
NtRp284
(dp285
g74
(dp286
g101
g102
ssg83
g275
sg76
(lp287
S':'
asbag69
(g90
g71
NtRp288
(dp289
g74
(dp290
sg83
g275
sg76
(lp291
g69
(g70
g71
NtRp292
(dp293
g74
(dp294
g82
I3
ssg83
g288
sg76
(lp295
S''
asbasbasbag69
(g85
g71
NtRp296
(dp297
g74
(dp298
sg83
g271
sg76
(lp299
g69
(g90
g71
NtRp300
(dp301
g74
(dp302
g94
g95
ssg83
g296
sg76
(lp303
S'domain'
p304
asbag69
(g90
g71
NtRp305
(dp306
g74
(dp307
g101
g102
ssg83
g296
sg76
(lp308
S':'
asbag69
(g90
g71
NtRp309
(dp310
g74
(dp311
sg83
g296
sg76
(lp312
g69
(g70
g71
NtRp313
(dp314
g74
(dp315
g82
I3
ssg83
g309
sg76
(lp316
S''
asbasbasbag69
(g85
g71
NtRp317
(dp318
g74
(dp319
sg83
g271
sg76
(lp320
g69
(g90
g71
NtRp321
(dp322
g74
(dp323
g94
g95
ssg83
g317
sg76
(lp324
S'expires'
p325
asbag69
(g90
g71
NtRp326
(dp327
g74
(dp328
g101
g102
ssg83
g317
sg76
(lp329
S':'
asbag69
(g90
g71
NtRp330
(dp331
g74
(dp332
sg83
g317
sg76
(lp333
g69
(g70
g71
NtRp334
(dp335
g74
(dp336
g82
I3
ssg83
g330
sg76
(lp337
S''
asbasbasbag69
(g85
g71
NtRp338
(dp339
g74
(dp340
sg83
g271
sg76
(lp341
g69
(g90
g71
NtRp342
(dp343
g74
(dp344
g94
g95
ssg83
g338
sg76
(lp345
S'httponly'
p346
asbag69
(g90
g71
NtRp347
(dp348
g74
(dp349
g101
g102
ssg83
g338
sg76
(lp350
S':'
asbag69
(g90
g71
NtRp351
(dp352
g74
(dp353
sg83
g338
sg76
(lp354
g69
(g70
g71
NtRp355
(dp356
g74
(dp357
g82
I3
ssg83
g351
sg76
(lp358
S''
asbasbasbag69
(g85
g71
NtRp359
(dp360
g74
(dp361
sg83
g271
sg76
(lp362
g69
(g90
g71
NtRp363
(dp364
g74
(dp365
g94
g95
ssg83
g359
sg76
(lp366
S'max-age'
p367
asbag69
(g90
g71
NtRp368
(dp369
g74
(dp370
g101
g102
ssg83
g359
sg76
(lp371
S':'
asbag69
(g90
g71
NtRp372
(dp373
g74
(dp374
sg83
g359
sg76
(lp375
g69
(g70
g71
NtRp376
(dp377
g74
(dp378
g82
I3
ssg83
g372
sg76
(lp379
S''
asbasbasbag69
(g85
g71
NtRp380
(dp381
g74
(dp382
sg83
g271
sg76
(lp383
g69
(g90
g71
NtRp384
(dp385
g74
(dp386
g94
g95
ssg83
g380
sg76
(lp387
S'path'
p388
asbag69
(g90
g71
NtRp389
(dp390
g74
(dp391
g101
g102
ssg83
g380
sg76
(lp392
S':'
asbag69
(g90
g71
NtRp393
(dp394
g74
(dp395
sg83
g380
sg76
(lp396
g69
(g70
g71
NtRp397
(dp398
g74
(dp399
g82
I3
ssg83
g393
sg76
(lp400
S''
asbasbasbag69
(g85
g71
NtRp401
(dp402
g74
(dp403
sg83
g271
sg76
(lp404
g69
(g90
g71
NtRp405
(dp406
g74
(dp407
g94
g95
ssg83
g401
sg76
(lp408
S'secure'
p409
asbag69
(g90
g71
NtRp410
(dp411
g74
(dp412
g101
g102
ssg83
g401
sg76
(lp413
S':'
asbag69
(g90
g71
NtRp414
(dp415
g74
(dp416
sg83
g401
sg76
(lp417
g69
(g70
g71
NtRp418
(dp419
g74
(dp420
g82
I3
ssg83
g414
sg76
(lp421
S''
asbasbasbag69
(g85
g71
NtRp422
(dp423
g74
(dp424
sg83
g271
sg76
(lp425
g69
(g90
g71
NtRp426
(dp427
g74
(dp428
g94
g95
ssg83
g422
sg76
(lp429
S'version'
p430
asbag69
(g90
g71
NtRp431
(dp432
g74
(dp433
g101
g102
ssg83
g422
sg76
(lp434
S':'
asbag69
(g90
g71
NtRp435
(dp436
g74
(dp437
sg83
g422
sg76
(lp438
g69
(g70
g71
NtRp439
(dp440
g74
(dp441
g82
I3
ssg83
g435
sg76
(lp442
S''
asbasbasbasbasbasbasbag69
(g85
g71
NtRp443
(dp444
g74
(dp445
sg83
g246
sg76
(lp446
g69
(g90
g71
NtRp447
(dp448
g74
(dp449
g94
g95
ssg83
g443
sg76
(lp450
S'session_id_kurssihallinta'
p451
asbag69
(g90
g71
NtRp452
(dp453
g74
(dp454
g101
g102
ssg83
g443
sg76
(lp455
S':'
asbag69
(g90
g71
NtRp456
(dp457
g74
(dp458
sg83
g443
sg76
(lp459
g69
(g70
g71
NtRp460
(dp461
g74
(dp462
g82
I4
ssg83
g456
sg76
(lp463
g69
(g78
g71
NtRp464
(dp465
g74
(dp466
g82
I3
ssg83
Nsg76
(lp467
g69
(g85
g71
NtRp468
(dp469
g74
(dp470
sg83
g464
sg76
(lp471
g69
(g90
g71
NtRp472
(dp473
g74
(dp474
g94
g95
ssg83
g468
sg76
(lp475
g283
asbag69
(g90
g71
NtRp476
(dp477
g74
(dp478
g101
g102
ssg83
g468
sg76
(lp479
S':'
asbag69
(g90
g71
NtRp480
(dp481
g74
(dp482
sg83
g468
sg76
(lp483
g69
(g70
g71
NtRp484
(dp485
g74
(dp486
g82
I3
ssg83
g480
sg76
(lp487
S''
asbasbasbag69
(g85
g71
NtRp488
(dp489
g74
(dp490
sg83
g464
sg76
(lp491
g69
(g90
g71
NtRp492
(dp493
g74
(dp494
g94
g95
ssg83
g488
sg76
(lp495
g304
asbag69
(g90
g71
NtRp496
(dp497
g74
(dp498
g101
g102
ssg83
g488
sg76
(lp499
S':'
asbag69
(g90
g71
NtRp500
(dp501
g74
(dp502
sg83
g488
sg76
(lp503
g69
(g70
g71
NtRp504
(dp505
g74
(dp506
g82
I3
ssg83
g500
sg76
(lp507
S''
asbasbasbag69
(g85
g71
NtRp508
(dp509
g74
(dp510
sg83
g464
sg76
(lp511
g69
(g90
g71
NtRp512
(dp513
g74
(dp514
g94
g95
ssg83
g508
sg76
(lp515
g325
asbag69
(g90
g71
NtRp516
(dp517
g74
(dp518
g101
g102
ssg83
g508
sg76
(lp519
S':'
asbag69
(g90
g71
NtRp520
(dp521
g74
(dp522
sg83
g508
sg76
(lp523
g69
(g70
g71
NtRp524
(dp525
g74
(dp526
g82
I3
ssg83
g520
sg76
(lp527
S''
asbasbasbag69
(g85
g71
NtRp528
(dp529
g74
(dp530
sg83
g464
sg76
(lp531
g69
(g90
g71
NtRp532
(dp533
g74
(dp534
g94
g95
ssg83
g528
sg76
(lp535
g346
asbag69
(g90
g71
NtRp536
(dp537
g74
(dp538
g101
g102
ssg83
g528
sg76
(lp539
S':'
asbag69
(g90
g71
NtRp540
(dp541
g74
(dp542
sg83
g528
sg76
(lp543
g69
(g70
g71
NtRp544
(dp545
g74
(dp546
g82
I3
ssg83
g540
sg76
(lp547
S''
asbasbasbag69
(g85
g71
NtRp548
(dp549
g74
(dp550
sg83
g464
sg76
(lp551
g69
(g90
g71
NtRp552
(dp553
g74
(dp554
g94
g95
ssg83
g548
sg76
(lp555
g367
asbag69
(g90
g71
NtRp556
(dp557
g74
(dp558
g101
g102
ssg83
g548
sg76
(lp559
S':'
asbag69
(g90
g71
NtRp560
(dp561
g74
(dp562
sg83
g548
sg76
(lp563
g69
(g70
g71
NtRp564
(dp565
g74
(dp566
g82
I3
ssg83
g560
sg76
(lp567
S''
asbasbasbag69
(g85
g71
NtRp568
(dp569
g74
(dp570
sg83
g464
sg76
(lp571
g69
(g90
g71
NtRp572
(dp573
g74
(dp574
g94
g95
ssg83
g568
sg76
(lp575
g388
asbag69
(g90
g71
NtRp576
(dp577
g74
(dp578
g101
g102
ssg83
g568
sg76
(lp579
S':'
asbag69
(g90
g71
NtRp580
(dp581
g74
(dp582
sg83
g568
sg76
(lp583
g69
(g70
g71
NtRp584
(dp585
g74
(dp586
g82
I3
ssg83
g580
sg76
(lp587
S''
asbasbasbag69
(g85
g71
NtRp588
(dp589
g74
(dp590
sg83
g464
sg76
(lp591
g69
(g90
g71
NtRp592
(dp593
g74
(dp594
g94
g95
ssg83
g588
sg76
(lp595
g409
asbag69
(g90
g71
NtRp596
(dp597
g74
(dp598
g101
g102
ssg83
g588
sg76
(lp599
S':'
asbag69
(g90
g71
NtRp600
(dp601
g74
(dp602
sg83
g588
sg76
(lp603
g69
(g70
g71
NtRp604
(dp605
g74
(dp606
g82
I3
ssg83
g600
sg76
(lp607
S''
asbasbasbag69
(g85
g71
NtRp608
(dp609
g74
(dp610
sg83
g464
sg76
(lp611
g69
(g90
g71
NtRp612
(dp613
g74
(dp614
g94
g95
ssg83
g608
sg76
(lp615
g430
asbag69
(g90
g71
NtRp616
(dp617
g74
(dp618
g101
g102
ssg83
g608
sg76
(lp619
S':'
asbag69
(g90
g71
NtRp620
(dp621
g74
(dp622
sg83
g608
sg76
(lp623
g69
(g70
g71
NtRp624
(dp625
g74
(dp626
g82
I3
ssg83
g620
sg76
(lp627
S''
asbasbasbasbasbasbasbag69
(g85
g71
NtRp628
(dp629
g74
(dp630
sg83
g246
sg76
(lp631
g69
(g90
g71
NtRp632
(dp633
g74
(dp634
g94
g95
ssg83
g628
sg76
(lp635
S'session_id_welcome'
p636
asbag69
(g90
g71
NtRp637
(dp638
g74
(dp639
g101
g102
ssg83
g628
sg76
(lp640
S':'
asbag69
(g90
g71
NtRp641
(dp642
g74
(dp643
sg83
g628
sg76
(lp644
g69
(g70
g71
NtRp645
(dp646
g74
(dp647
g82
I4
ssg83
g641
sg76
(lp648
g69
(g78
g71
NtRp649
(dp650
g74
(dp651
g82
I3
ssg83
Nsg76
(lp652
g69
(g85
g71
NtRp653
(dp654
g74
(dp655
sg83
g649
sg76
(lp656
g69
(g90
g71
NtRp657
(dp658
g74
(dp659
g94
g95
ssg83
g653
sg76
(lp660
g283
asbag69
(g90
g71
NtRp661
(dp662
g74
(dp663
g101
g102
ssg83
g653
sg76
(lp664
S':'
asbag69
(g90
g71
NtRp665
(dp666
g74
(dp667
sg83
g653
sg76
(lp668
g69
(g70
g71
NtRp669
(dp670
g74
(dp671
g82
I3
ssg83
g665
sg76
(lp672
S''
asbasbasbag69
(g85
g71
NtRp673
(dp674
g74
(dp675
sg83
g649
sg76
(lp676
g69
(g90
g71
NtRp677
(dp678
g74
(dp679
g94
g95
ssg83
g673
sg76
(lp680
g304
asbag69
(g90
g71
NtRp681
(dp682
g74
(dp683
g101
g102
ssg83
g673
sg76
(lp684
S':'
asbag69
(g90
g71
NtRp685
(dp686
g74
(dp687
sg83
g673
sg76
(lp688
g69
(g70
g71
NtRp689
(dp690
g74
(dp691
g82
I3
ssg83
g685
sg76
(lp692
S''
asbasbasbag69
(g85
g71
NtRp693
(dp694
g74
(dp695
sg83
g649
sg76
(lp696
g69
(g90
g71
NtRp697
(dp698
g74
(dp699
g94
g95
ssg83
g693
sg76
(lp700
g325
asbag69
(g90
g71
NtRp701
(dp702
g74
(dp703
g101
g102
ssg83
g693
sg76
(lp704
S':'
asbag69
(g90
g71
NtRp705
(dp706
g74
(dp707
sg83
g693
sg76
(lp708
g69
(g70
g71
NtRp709
(dp710
g74
(dp711
g82
I3
ssg83
g705
sg76
(lp712
S''
asbasbasbag69
(g85
g71
NtRp713
(dp714
g74
(dp715
sg83
g649
sg76
(lp716
g69
(g90
g71
NtRp717
(dp718
g74
(dp719
g94
g95
ssg83
g713
sg76
(lp720
g346
asbag69
(g90
g71
NtRp721
(dp722
g74
(dp723
g101
g102
ssg83
g713
sg76
(lp724
S':'
asbag69
(g90
g71
NtRp725
(dp726
g74
(dp727
sg83
g713
sg76
(lp728
g69
(g70
g71
NtRp729
(dp730
g74
(dp731
g82
I3
ssg83
g725
sg76
(lp732
S''
asbasbasbag69
(g85
g71
NtRp733
(dp734
g74
(dp735
sg83
g649
sg76
(lp736
g69
(g90
g71
NtRp737
(dp738
g74
(dp739
g94
g95
ssg83
g733
sg76
(lp740
g367
asbag69
(g90
g71
NtRp741
(dp742
g74
(dp743
g101
g102
ssg83
g733
sg76
(lp744
S':'
asbag69
(g90
g71
NtRp745
(dp746
g74
(dp747
sg83
g733
sg76
(lp748
g69
(g70
g71
NtRp749
(dp750
g74
(dp751
g82
I3
ssg83
g745
sg76
(lp752
S''
asbasbasbag69
(g85
g71
NtRp753
(dp754
g74
(dp755
sg83
g649
sg76
(lp756
g69
(g90
g71
NtRp757
(dp758
g74
(dp759
g94
g95
ssg83
g753
sg76
(lp760
g388
asbag69
(g90
g71
NtRp761
(dp762
g74
(dp763
g101
g102
ssg83
g753
sg76
(lp764
S':'
asbag69
(g90
g71
NtRp765
(dp766
g74
(dp767
sg83
g753
sg76
(lp768
g69
(g70
g71
NtRp769
(dp770
g74
(dp771
g82
I3
ssg83
g765
sg76
(lp772
S''
asbasbasbag69
(g85
g71
NtRp773
(dp774
g74
(dp775
sg83
g649
sg76
(lp776
g69
(g90
g71
NtRp777
(dp778
g74
(dp779
g94
g95
ssg83
g773
sg76
(lp780
g409
asbag69
(g90
g71
NtRp781
(dp782
g74
(dp783
g101
g102
ssg83
g773
sg76
(lp784
S':'
asbag69
(g90
g71
NtRp785
(dp786
g74
(dp787
sg83
g773
sg76
(lp788
g69
(g70
g71
NtRp789
(dp790
g74
(dp791
g82
I3
ssg83
g785
sg76
(lp792
S''
asbasbasbag69
(g85
g71
NtRp793
(dp794
g74
(dp795
sg83
g649
sg76
(lp796
g69
(g90
g71
NtRp797
(dp798
g74
(dp799
g94
g95
ssg83
g793
sg76
(lp800
g430
asbag69
(g90
g71
NtRp801
(dp802
g74
(dp803
g101
g102
ssg83
g793
sg76
(lp804
S':'
asbag69
(g90
g71
NtRp805
(dp806
g74
(dp807
sg83
g793
sg76
(lp808
g69
(g70
g71
NtRp809
(dp810
g74
(dp811
g82
I3
ssg83
g805
sg76
(lp812
S''
asbasbasbasbasbasbasbasbasbasbasbag69
(g85
g71
NtRp813
(dp814
g74
(dp815
sg83
g79
sg76
(lp816
g69
(g90
g71
NtRp817
(dp818
g74
(dp819
g94
g95
ssg83
g813
sg76
(lp820
S'env'
p821
asbag69
(g90
g71
NtRp822
(dp823
g74
(dp824
g101
g102
ssg83
g813
sg76
(lp825
S':'
asbag69
(g90
g71
NtRp826
(dp827
g74
(dp828
sg83
g813
sg76
(lp829
g69
(g70
g71
NtRp830
(dp831
g74
(dp832
g82
I5
ssg83
g826
sg76
(lp833
g69
(g78
g71
NtRp834
(dp835
g74
(dp836
g82
I4
ssg83
Nsg76
(lp837
g69
(g85
g71
NtRp838
(dp839
g74
(dp840
sg83
g834
sg76
(lp841
g69
(g90
g71
NtRp842
(dp843
g74
(dp844
g94
g95
ssg83
g838
sg76
(lp845
S'app_folders'
p846
asbag69
(g90
g71
NtRp847
(dp848
g74
(dp849
g101
g102
ssg83
g838
sg76
(lp850
S':'
asbag69
(g90
g71
NtRp851
(dp852
g74
(dp853
sg83
g838
sg76
(lp854
g69
(g70
g71
NtRp855
(dp856
g74
(dp857
g82
I4
ssg83
g851
sg76
(lp858
S"set(['/home/mka/web2py/applications/examples/', '/home/mka/web2py/applications/myapp/', '/home/mka/web2py/applications/welcome/', '/home/mka/web2py/applications/admin/', '/home/mka/web2py/applications/kurssihallinta/'])"
p859
asbasbasbag69
(g85
g71
NtRp860
(dp861
g74
(dp862
sg83
g834
sg76
(lp863
g69
(g90
g71
NtRp864
(dp865
g74
(dp866
g94
g95
ssg83
g860
sg76
(lp867
S'applications_parent'
p868
asbag69
(g90
g71
NtRp869
(dp870
g74
(dp871
g101
g102
ssg83
g860
sg76
(lp872
S':'
asbag69
(g90
g71
NtRp873
(dp874
g74
(dp875
sg83
g860
sg76
(lp876
g69
(g70
g71
NtRp877
(dp878
g74
(dp879
g82
I4
ssg83
g873
sg76
(lp880
S'/home/mka/web2py'
p881
asbasbasbag69
(g85
g71
NtRp882
(dp883
g74
(dp884
sg83
g834
sg76
(lp885
g69
(g90
g71
NtRp886
(dp887
g74
(dp888
g94
g95
ssg83
g882
sg76
(lp889
S'cmd_args'
p890
asbag69
(g90
g71
NtRp891
(dp892
g74
(dp893
g101
g102
ssg83
g882
sg76
(lp894
S':'
asbag69
(g90
g71
NtRp895
(dp896
g74
(dp897
sg83
g882
sg76
(lp898
g69
(g70
g71
NtRp899
(dp900
g74
(dp901
g82
I4
ssg83
g895
sg76
(lp902
g69
(g78
g71
NtRp903
(dp904
g74
(dp905
g82
I3
ssg83
Nsg76
(lp906
sbasbasbasbag69
(g85
g71
NtRp907
(dp908
g74
(dp909
sg83
g834
sg76
(lp910
g69
(g90
g71
NtRp911
(dp912
g74
(dp913
g94
g95
ssg83
g907
sg76
(lp914
S'cmd_options'
p915
asbag69
(g90
g71
NtRp916
(dp917
g74
(dp918
g101
g102
ssg83
g907
sg76
(lp919
S':'
asbag69
(g90
g71
NtRp920
(dp921
g74
(dp922
sg83
g907
sg76
(lp923
g69
(g70
g71
NtRp924
(dp925
g74
(dp926
g82
I4
ssg83
g920
sg76
(lp927
S"<Values at 0x8feb86c: {'verbose': False, 'ip': '127.0.0.1', 'shutdown_timeout': 5, 'taskbar': False, 'port': 8000, 'maxthreads': None, 'softcron': False, 'server_name': 'mka3830TG', 'bpython': False, 'nogui': False, 'nocron': False, 'extcron': False, 'debuglevel': 30, 'test': None, 'folder': '/home/mka/web2py', 'config': '', 'import_models': False, 'winservice': '', 'shell': None, 'run': '', 'log_filename': 'httpserver.log', 'args': [''], 'socket_timeout': 1, 'profiler_filename': None, 'ssl_private_key': '', 'password': '<ask>', 'request_queue_size': 5, 'ssl_certificate': '', 'cronjob': False, 'plain': False, 'quiet': False, 'interfaces': None, 'minthreads': None, 'timeout': 10, 'numthreads': None, 'nobanner': False, 'pid_filename': 'httpserver.pid'}>"
p928
asbasbasbag69
(g85
g71
NtRp929
(dp930
g74
(dp931
sg83
g834
sg76
(lp932
g69
(g90
g71
NtRp933
(dp934
g74
(dp935
g94
g95
ssg83
g929
sg76
(lp936
S'db_sessions'
p937
asbag69
(g90
g71
NtRp938
(dp939
g74
(dp940
g101
g102
ssg83
g929
sg76
(lp941
S':'
asbag69
(g90
g71
NtRp942
(dp943
g74
(dp944
sg83
g929
sg76
(lp945
g69
(g70
g71
NtRp946
(dp947
g74
(dp948
g82
I4
ssg83
g942
sg76
(lp949
S'set([])'
p950
asbasbasbag69
(g85
g71
NtRp951
(dp952
g74
(dp953
sg83
g834
sg76
(lp954
g69
(g90
g71
NtRp955
(dp956
g74
(dp957
g94
g95
ssg83
g951
sg76
(lp958
S'debugging'
p959
asbag69
(g90
g71
NtRp960
(dp961
g74
(dp962
g101
g102
ssg83
g951
sg76
(lp963
S':'
asbag69
(g90
g71
NtRp964
(dp965
g74
(dp966
sg83
g951
sg76
(lp967
g69
(g70
g71
NtRp968
(dp969
g74
(dp970
g82
I4
ssg83
g964
sg76
(lp971
g112
asbasbasbag69
(g85
g71
NtRp972
(dp973
g74
(dp974
sg83
g834
sg76
(lp975
g69
(g90
g71
NtRp976
(dp977
g74
(dp978
g94
g95
ssg83
g972
sg76
(lp979
S'gluon_parent'
p980
asbag69
(g90
g71
NtRp981
(dp982
g74
(dp983
g101
g102
ssg83
g972
sg76
(lp984
S':'
asbag69
(g90
g71
NtRp985
(dp986
g74
(dp987
sg83
g972
sg76
(lp988
g69
(g70
g71
NtRp989
(dp990
g74
(dp991
g82
I4
ssg83
g985
sg76
(lp992
S'/usr/share/web2py'
p993
asbasbasbag69
(g85
g71
NtRp994
(dp995
g74
(dp996
sg83
g834
sg76
(lp997
g69
(g90
g71
NtRp998
(dp999
g74
(dp1000
g94
g95
ssg83
g994
sg76
(lp1001
S'http_accept'
p1002
asbag69
(g90
g71
NtRp1003
(dp1004
g74
(dp1005
g101
g102
ssg83
g994
sg76
(lp1006
S':'
asbag69
(g90
g71
NtRp1007
(dp1008
g74
(dp1009
sg83
g994
sg76
(lp1010
g69
(g70
g71
NtRp1011
(dp1012
g74
(dp1013
g82
I4
ssg83
g1007
sg76
(lp1014
S'text/html,application/xhtml+xml,application/xml;q=0.9,*/*;q=0.8'
p1015
asbasbasbag69
(g85
g71
NtRp1016
(dp1017
g74
(dp1018
sg83
g834
sg76
(lp1019
g69
(g90
g71
NtRp1020
(dp1021
g74
(dp1022
g94
g95
ssg83
g1016
sg76
(lp1023
S'http_accept_charset'
p1024
asbag69
(g90
g71
NtRp1025
(dp1026
g74
(dp1027
g101
g102
ssg83
g1016
sg76
(lp1028
S':'
asbag69
(g90
g71
NtRp1029
(dp1030
g74
(dp1031
sg83
g1016
sg76
(lp1032
g69
(g70
g71
NtRp1033
(dp1034
g74
(dp1035
g82
I4
ssg83
g1029
sg76
(lp1036
S'ISO-8859-1,utf-8;q=0.7,*;q=0.3'
p1037
asbasbasbag69
(g85
g71
NtRp1038
(dp1039
g74
(dp1040
sg83
g834
sg76
(lp1041
g69
(g90
g71
NtRp1042
(dp1043
g74
(dp1044
g94
g95
ssg83
g1038
sg76
(lp1045
S'http_accept_encoding'
p1046
asbag69
(g90
g71
NtRp1047
(dp1048
g74
(dp1049
g101
g102
ssg83
g1038
sg76
(lp1050
S':'
asbag69
(g90
g71
NtRp1051
(dp1052
g74
(dp1053
sg83
g1038
sg76
(lp1054
g69
(g70
g71
NtRp1055
(dp1056
g74
(dp1057
g82
I4
ssg83
g1051
sg76
(lp1058
S'gzip,deflate,sdch'
p1059
asbasbasbag69
(g85
g71
NtRp1060
(dp1061
g74
(dp1062
sg83
g834
sg76
(lp1063
g69
(g90
g71
NtRp1064
(dp1065
g74
(dp1066
g94
g95
ssg83
g1060
sg76
(lp1067
S'http_accept_language'
p1068
asbag69
(g90
g71
NtRp1069
(dp1070
g74
(dp1071
g101
g102
ssg83
g1060
sg76
(lp1072
S':'
asbag69
(g90
g71
NtRp1073
(dp1074
g74
(dp1075
sg83
g1060
sg76
(lp1076
g69
(g70
g71
NtRp1077
(dp1078
g74
(dp1079
g82
I4
ssg83
g1073
sg76
(lp1080
S'en-US,en;q=0.8'
p1081
asbasbasbag69
(g85
g71
NtRp1082
(dp1083
g74
(dp1084
sg83
g834
sg76
(lp1085
g69
(g90
g71
NtRp1086
(dp1087
g74
(dp1088
g94
g95
ssg83
g1082
sg76
(lp1089
S'http_cache_control'
p1090
asbag69
(g90
g71
NtRp1091
(dp1092
g74
(dp1093
g101
g102
ssg83
g1082
sg76
(lp1094
S':'
asbag69
(g90
g71
NtRp1095
(dp1096
g74
(dp1097
sg83
g1082
sg76
(lp1098
g69
(g70
g71
NtRp1099
(dp1100
g74
(dp1101
g82
I4
ssg83
g1095
sg76
(lp1102
S'max-age=0'
p1103
asbasbasbag69
(g85
g71
NtRp1104
(dp1105
g74
(dp1106
sg83
g834
sg76
(lp1107
g69
(g90
g71
NtRp1108
(dp1109
g74
(dp1110
g94
g95
ssg83
g1104
sg76
(lp1111
S'http_connection'
p1112
asbag69
(g90
g71
NtRp1113
(dp1114
g74
(dp1115
g101
g102
ssg83
g1104
sg76
(lp1116
S':'
asbag69
(g90
g71
NtRp1117
(dp1118
g74
(dp1119
sg83
g1104
sg76
(lp1120
g69
(g70
g71
NtRp1121
(dp1122
g74
(dp1123
g82
I4
ssg83
g1117
sg76
(lp1124
S'keep-alive'
p1125
asbasbasbag69
(g85
g71
NtRp1126
(dp1127
g74
(dp1128
sg83
g834
sg76
(lp1129
g69
(g90
g71
NtRp1130
(dp1131
g74
(dp1132
g94
g95
ssg83
g1126
sg76
(lp1133
S'http_cookie'
p1134
asbag69
(g90
g71
NtRp1135
(dp1136
g74
(dp1137
g101
g102
ssg83
g1126
sg76
(lp1138
S':'
asbag69
(g90
g71
NtRp1139
(dp1140
g74
(dp1141
sg83
g1126
sg76
(lp1142
g69
(g70
g71
NtRp1143
(dp1144
g74
(dp1145
g82
I4
ssg83
g1139
sg76
(lp1146
S'session_id_welcome=127.0.0.1-debd82a2-2d92-4d9f-a7af-aba1552b15c2; session_id_admin=127.0.0.1-a5a35fd8-1736-48d3-b921-f9987563b609; session_id_kurssihallinta=127.0.0.1-04007b50-a50e-4f99-8adc-6e576aa93981'
p1147
asbasbasbag69
(g85
g71
NtRp1148
(dp1149
g74
(dp1150
sg83
g834
sg76
(lp1151
g69
(g90
g71
NtRp1152
(dp1153
g74
(dp1154
g94
g95
ssg83
g1148
sg76
(lp1155
S'http_host'
p1156
asbag69
(g90
g71
NtRp1157
(dp1158
g74
(dp1159
g101
g102
ssg83
g1148
sg76
(lp1160
S':'
asbag69
(g90
g71
NtRp1161
(dp1162
g74
(dp1163
sg83
g1148
sg76
(lp1164
g69
(g70
g71
NtRp1165
(dp1166
g74
(dp1167
g82
I4
ssg83
g1161
sg76
(lp1168
S'127.0.0.1:8000'
p1169
asbasbasbag69
(g85
g71
NtRp1170
(dp1171
g74
(dp1172
sg83
g834
sg76
(lp1173
g69
(g90
g71
NtRp1174
(dp1175
g74
(dp1176
g94
g95
ssg83
g1170
sg76
(lp1177
S'http_user_agent'
p1178
asbag69
(g90
g71
NtRp1179
(dp1180
g74
(dp1181
g101
g102
ssg83
g1170
sg76
(lp1182
S':'
asbag69
(g90
g71
NtRp1183
(dp1184
g74
(dp1185
sg83
g1170
sg76
(lp1186
g69
(g70
g71
NtRp1187
(dp1188
g74
(dp1189
g82
I4
ssg83
g1183
sg76
(lp1190
S'Mozilla/5.0 (X11; Linux i686) AppleWebKit/537.31 (KHTML, like Gecko) Chrome/26.0.1410.63 Safari/537.31'
p1191
asbasbasbag69
(g85
g71
NtRp1192
(dp1193
g74
(dp1194
sg83
g834
sg76
(lp1195
g69
(g90
g71
NtRp1196
(dp1197
g74
(dp1198
g94
g95
ssg83
g1192
sg76
(lp1199
S'is_jython'
p1200
asbag69
(g90
g71
NtRp1201
(dp1202
g74
(dp1203
g101
g102
ssg83
g1192
sg76
(lp1204
S':'
asbag69
(g90
g71
NtRp1205
(dp1206
g74
(dp1207
sg83
g1192
sg76
(lp1208
g69
(g70
g71
NtRp1209
(dp1210
g74
(dp1211
g82
I4
ssg83
g1205
sg76
(lp1212
g112
asbasbasbag69
(g85
g71
NtRp1213
(dp1214
g74
(dp1215
sg83
g834
sg76
(lp1216
g69
(g90
g71
NtRp1217
(dp1218
g74
(dp1219
g94
g95
ssg83
g1213
sg76
(lp1220
S'is_pypy'
p1221
asbag69
(g90
g71
NtRp1222
(dp1223
g74
(dp1224
g101
g102
ssg83
g1213
sg76
(lp1225
S':'
asbag69
(g90
g71
NtRp1226
(dp1227
g74
(dp1228
sg83
g1213
sg76
(lp1229
g69
(g70
g71
NtRp1230
(dp1231
g74
(dp1232
g82
I4
ssg83
g1226
sg76
(lp1233
g112
asbasbasbag69
(g85
g71
NtRp1234
(dp1235
g74
(dp1236
sg83
g834
sg76
(lp1237
g69
(g90
g71
NtRp1238
(dp1239
g74
(dp1240
g94
g95
ssg83
g1234
sg76
(lp1241
S'path_info'
p1242
asbag69
(g90
g71
NtRp1243
(dp1244
g74
(dp1245
g101
g102
ssg83
g1234
sg76
(lp1246
S':'
asbag69
(g90
g71
NtRp1247
(dp1248
g74
(dp1249
sg83
g1234
sg76
(lp1250
g69
(g70
g71
NtRp1251
(dp1252
g74
(dp1253
g82
I4
ssg83
g1247
sg76
(lp1254
S'/kurssihallinta/default/opettaja_kaikki_kurssit'
p1255
asbasbasbag69
(g85
g71
NtRp1256
(dp1257
g74
(dp1258
sg83
g834
sg76
(lp1259
g69
(g90
g71
NtRp1260
(dp1261
g74
(dp1262
g94
g95
ssg83
g1256
sg76
(lp1263
S'query_string'
p1264
asbag69
(g90
g71
NtRp1265
(dp1266
g74
(dp1267
g101
g102
ssg83
g1256
sg76
(lp1268
S':'
asbag69
(g90
g71
NtRp1269
(dp1270
g74
(dp1271
sg83
g1256
sg76
(lp1272
g69
(g70
g71
NtRp1273
(dp1274
g74
(dp1275
g82
I4
ssg83
g1269
sg76
(lp1276
S''
asbasbasbag69
(g85
g71
NtRp1277
(dp1278
g74
(dp1279
sg83
g834
sg76
(lp1280
g69
(g90
g71
NtRp1281
(dp1282
g74
(dp1283
g94
g95
ssg83
g1277
sg76
(lp1284
S'remote_addr'
p1285
asbag69
(g90
g71
NtRp1286
(dp1287
g74
(dp1288
g101
g102
ssg83
g1277
sg76
(lp1289
S':'
asbag69
(g90
g71
NtRp1290
(dp1291
g74
(dp1292
sg83
g1277
sg76
(lp1293
g69
(g70
g71
NtRp1294
(dp1295
g74
(dp1296
g82
I4
ssg83
g1290
sg76
(lp1297
g202
asbasbasbag69
(g85
g71
NtRp1298
(dp1299
g74
(dp1300
sg83
g834
sg76
(lp1301
g69
(g90
g71
NtRp1302
(dp1303
g74
(dp1304
g94
g95
ssg83
g1298
sg76
(lp1305
S'remote_port'
p1306
asbag69
(g90
g71
NtRp1307
(dp1308
g74
(dp1309
g101
g102
ssg83
g1298
sg76
(lp1310
S':'
asbag69
(g90
g71
NtRp1311
(dp1312
g74
(dp1313
sg83
g1298
sg76
(lp1314
g69
(g70
g71
NtRp1315
(dp1316
g74
(dp1317
g82
I4
ssg83
g1311
sg76
(lp1318
S'49499'
p1319
asbasbasbag69
(g85
g71
NtRp1320
(dp1321
g74
(dp1322
sg83
g834
sg76
(lp1323
g69
(g90
g71
NtRp1324
(dp1325
g74
(dp1326
g94
g95
ssg83
g1320
sg76
(lp1327
S'request_method'
p1328
asbag69
(g90
g71
NtRp1329
(dp1330
g74
(dp1331
g101
g102
ssg83
g1320
sg76
(lp1332
S':'
asbag69
(g90
g71
NtRp1333
(dp1334
g74
(dp1335
sg83
g1320
sg76
(lp1336
g69
(g70
g71
NtRp1337
(dp1338
g74
(dp1339
g82
I4
ssg83
g1333
sg76
(lp1340
S'GET'
p1341
asbasbasbag69
(g85
g71
NtRp1342
(dp1343
g74
(dp1344
sg83
g834
sg76
(lp1345
g69
(g90
g71
NtRp1346
(dp1347
g74
(dp1348
g94
g95
ssg83
g1342
sg76
(lp1349
S'script_name'
p1350
asbag69
(g90
g71
NtRp1351
(dp1352
g74
(dp1353
g101
g102
ssg83
g1342
sg76
(lp1354
S':'
asbag69
(g90
g71
NtRp1355
(dp1356
g74
(dp1357
sg83
g1342
sg76
(lp1358
g69
(g70
g71
NtRp1359
(dp1360
g74
(dp1361
g82
I4
ssg83
g1355
sg76
(lp1362
S''
asbasbasbag69
(g85
g71
NtRp1363
(dp1364
g74
(dp1365
sg83
g834
sg76
(lp1366
g69
(g90
g71
NtRp1367
(dp1368
g74
(dp1369
g94
g95
ssg83
g1363
sg76
(lp1370
S'server_name'
p1371
asbag69
(g90
g71
NtRp1372
(dp1373
g74
(dp1374
g101
g102
ssg83
g1363
sg76
(lp1375
S':'
asbag69
(g90
g71
NtRp1376
(dp1377
g74
(dp1378
sg83
g1363
sg76
(lp1379
g69
(g70
g71
NtRp1380
(dp1381
g74
(dp1382
g82
I4
ssg83
g1376
sg76
(lp1383
S'mka3830TG'
p1384
asbasbasbag69
(g85
g71
NtRp1385
(dp1386
g74
(dp1387
sg83
g834
sg76
(lp1388
g69
(g90
g71
NtRp1389
(dp1390
g74
(dp1391
g94
g95
ssg83
g1385
sg76
(lp1392
S'server_port'
p1393
asbag69
(g90
g71
NtRp1394
(dp1395
g74
(dp1396
g101
g102
ssg83
g1385
sg76
(lp1397
S':'
asbag69
(g90
g71
NtRp1398
(dp1399
g74
(dp1400
sg83
g1385
sg76
(lp1401
g69
(g70
g71
NtRp1402
(dp1403
g74
(dp1404
g82
I4
ssg83
g1398
sg76
(lp1405
S'8000'
p1406
asbasbasbag69
(g85
g71
NtRp1407
(dp1408
g74
(dp1409
sg83
g834
sg76
(lp1410
g69
(g90
g71
NtRp1411
(dp1412
g74
(dp1413
g94
g95
ssg83
g1407
sg76
(lp1414
S'server_protocol'
p1415
asbag69
(g90
g71
NtRp1416
(dp1417
g74
(dp1418
g101
g102
ssg83
g1407
sg76
(lp1419
S':'
asbag69
(g90
g71
NtRp1420
(dp1421
g74
(dp1422
sg83
g1407
sg76
(lp1423
g69
(g70
g71
NtRp1424
(dp1425
g74
(dp1426
g82
I4
ssg83
g1420
sg76
(lp1427
S'HTTP/1.1'
p1428
asbasbasbag69
(g85
g71
NtRp1429
(dp1430
g74
(dp1431
sg83
g834
sg76
(lp1432
g69
(g90
g71
NtRp1433
(dp1434
g74
(dp1435
g94
g95
ssg83
g1429
sg76
(lp1436
S'server_software'
p1437
asbag69
(g90
g71
NtRp1438
(dp1439
g74
(dp1440
g101
g102
ssg83
g1429
sg76
(lp1441
S':'
asbag69
(g90
g71
NtRp1442
(dp1443
g74
(dp1444
sg83
g1429
sg76
(lp1445
g69
(g70
g71
NtRp1446
(dp1447
g74
(dp1448
g82
I4
ssg83
g1442
sg76
(lp1449
S'Rocket 1.2.4'
p1450
asbasbasbag69
(g85
g71
NtRp1451
(dp1452
g74
(dp1453
sg83
g834
sg76
(lp1454
g69
(g90
g71
NtRp1455
(dp1456
g74
(dp1457
g94
g95
ssg83
g1451
sg76
(lp1458
S'web2py_crontype'
p1459
asbag69
(g90
g71
NtRp1460
(dp1461
g74
(dp1462
g101
g102
ssg83
g1451
sg76
(lp1463
S':'
asbag69
(g90
g71
NtRp1464
(dp1465
g74
(dp1466
sg83
g1451
sg76
(lp1467
g69
(g70
g71
NtRp1468
(dp1469
g74
(dp1470
g82
I4
ssg83
g1464
sg76
(lp1471
S'hard'
p1472
asbasbasbag69
(g85
g71
NtRp1473
(dp1474
g74
(dp1475
sg83
g834
sg76
(lp1476
g69
(g90
g71
NtRp1477
(dp1478
g74
(dp1479
g94
g95
ssg83
g1473
sg76
(lp1480
S'web2py_path'
p1481
asbag69
(g90
g71
NtRp1482
(dp1483
g74
(dp1484
g101
g102
ssg83
g1473
sg76
(lp1485
S':'
asbag69
(g90
g71
NtRp1486
(dp1487
g74
(dp1488
sg83
g1473
sg76
(lp1489
g69
(g70
g71
NtRp1490
(dp1491
g74
(dp1492
g82
I4
ssg83
g1486
sg76
(lp1493
g881
asbasbasbag69
(g85
g71
NtRp1494
(dp1495
g74
(dp1496
sg83
g834
sg76
(lp1497
g69
(g90
g71
NtRp1498
(dp1499
g74
(dp1500
g94
g95
ssg83
g1494
sg76
(lp1501
S'web2py_version'
p1502
asbag69
(g90
g71
NtRp1503
(dp1504
g74
(dp1505
g101
g102
ssg83
g1494
sg76
(lp1506
S':'
asbag69
(g90
g71
NtRp1507
(dp1508
g74
(dp1509
sg83
g1494
sg76
(lp1510
g69
(g70
g71
NtRp1511
(dp1512
g74
(dp1513
g82
I4
ssg83
g1507
sg76
(lp1514
g69
(g78
g71
NtRp1515
(dp1516
g74
(dp1517
g82
I3
ssg83
Nsg76
(lp1518
g69
(g85
g71
NtRp1519
(dp1520
g74
(dp1521
sg83
g1515
sg76
(lp1522
g69
(g90
g71
NtRp1523
(dp1524
g74
(dp1525
sg83
g1519
sg76
(lp1526
g69
(g70
g71
NtRp1527
(dp1528
g74
(dp1529
g82
I3
ssg83
g1523
sg76
(lp1530
S'1'
asbasbasbag69
(g85
g71
NtRp1531
(dp1532
g74
(dp1533
sg83
g1515
sg76
(lp1534
g69
(g90
g71
NtRp1535
(dp1536
g74
(dp1537
sg83
g1531
sg76
(lp1538
g69
(g70
g71
NtRp1539
(dp1540
g74
(dp1541
g82
I3
ssg83
g1535
sg76
(lp1542
S'99'
p1543
asbasbasbag69
(g85
g71
NtRp1544
(dp1545
g74
(dp1546
sg83
g1515
sg76
(lp1547
g69
(g90
g71
NtRp1548
(dp1549
g74
(dp1550
sg83
g1544
sg76
(lp1551
g69
(g70
g71
NtRp1552
(dp1553
g74
(dp1554
g82
I3
ssg83
g1548
sg76
(lp1555
S'4'
asbasbasbag69
(g85
g71
NtRp1556
(dp1557
g74
(dp1558
sg83
g1515
sg76
(lp1559
g69
(g90
g71
NtRp1560
(dp1561
g74
(dp1562
sg83
g1556
sg76
(lp1563
g69
(g70
g71
NtRp1564
(dp1565
g74
(dp1566
g82
I3
ssg83
g1560
sg76
(lp1567
S'datetime.datetime(2011, 12, 14, 14, 46, 14)'
p1568
asbasbasbag69
(g85
g71
NtRp1569
(dp1570
g74
(dp1571
sg83
g1515
sg76
(lp1572
g69
(g90
g71
NtRp1573
(dp1574
g74
(dp1575
sg83
g1569
sg76
(lp1576
g69
(g70
g71
NtRp1577
(dp1578
g74
(dp1579
g82
I3
ssg83
g1573
sg76
(lp1580
S'stable'
p1581
asbasbasbasbasbasbasbag69
(g85
g71
NtRp1582
(dp1583
g74
(dp1584
sg83
g834
sg76
(lp1585
g69
(g90
g71
NtRp1586
(dp1587
g74
(dp1588
g94
g95
ssg83
g1582
sg76
(lp1589
S'wsgi_errors'
p1590
asbag69
(g90
g71
NtRp1591
(dp1592
g74
(dp1593
g101
g102
ssg83
g1582
sg76
(lp1594
S':'
asbag69
(g90
g71
NtRp1595
(dp1596
g74
(dp1597
sg83
g1582
sg76
(lp1598
g69
(g70
g71
NtRp1599
(dp1600
g74
(dp1601
g82
I4
ssg83
g1595
sg76
(lp1602
S"<open file '<stderr>', mode 'w' at 0xb72ca0d0>"
p1603
asbasbasbag69
(g85
g71
NtRp1604
(dp1605
g74
(dp1606
sg83
g834
sg76
(lp1607
g69
(g90
g71
NtRp1608
(dp1609
g74
(dp1610
g94
g95
ssg83
g1604
sg76
(lp1611
S'wsgi_file_wrapper'
p1612
asbag69
(g90
g71
NtRp1613
(dp1614
g74
(dp1615
g101
g102
ssg83
g1604
sg76
(lp1616
S':'
asbag69
(g90
g71
NtRp1617
(dp1618
g74
(dp1619
sg83
g1604
sg76
(lp1620
g69
(g70
g71
NtRp1621
(dp1622
g74
(dp1623
g82
I4
ssg83
g1617
sg76
(lp1624
S'<class wsgiref.util.FileWrapper at 0x8db505c>'
p1625
asbasbasbag69
(g85
g71
NtRp1626
(dp1627
g74
(dp1628
sg83
g834
sg76
(lp1629
g69
(g90
g71
NtRp1630
(dp1631
g74
(dp1632
g94
g95
ssg83
g1626
sg76
(lp1633
S'wsgi_input'
p1634
asbag69
(g90
g71
NtRp1635
(dp1636
g74
(dp1637
g101
g102
ssg83
g1626
sg76
(lp1638
S':'
asbag69
(g90
g71
NtRp1639
(dp1640
g74
(dp1641
sg83
g1626
sg76
(lp1642
g69
(g70
g71
NtRp1643
(dp1644
g74
(dp1645
g82
I4
ssg83
g1639
sg76
(lp1646
S'<socket._fileobject object at 0xaab62dec>'
p1647
asbasbasbag69
(g85
g71
NtRp1648
(dp1649
g74
(dp1650
sg83
g834
sg76
(lp1651
g69
(g90
g71
NtRp1652
(dp1653
g74
(dp1654
g94
g95
ssg83
g1648
sg76
(lp1655
S'wsgi_multiprocess'
p1656
asbag69
(g90
g71
NtRp1657
(dp1658
g74
(dp1659
g101
g102
ssg83
g1648
sg76
(lp1660
S':'
asbag69
(g90
g71
NtRp1661
(dp1662
g74
(dp1663
sg83
g1648
sg76
(lp1664
g69
(g70
g71
NtRp1665
(dp1666
g74
(dp1667
g82
I4
ssg83
g1661
sg76
(lp1668
g112
asbasbasbag69
(g85
g71
NtRp1669
(dp1670
g74
(dp1671
sg83
g834
sg76
(lp1672
g69
(g90
g71
NtRp1673
(dp1674
g74
(dp1675
g94
g95
ssg83
g1669
sg76
(lp1676
S'wsgi_multithread'
p1677
asbag69
(g90
g71
NtRp1678
(dp1679
g74
(dp1680
g101
g102
ssg83
g1669
sg76
(lp1681
S':'
asbag69
(g90
g71
NtRp1682
(dp1683
g74
(dp1684
sg83
g1669
sg76
(lp1685
g69
(g70
g71
NtRp1686
(dp1687
g74
(dp1688
g82
I4
ssg83
g1682
sg76
(lp1689
S'True'
p1690
asbasbasbag69
(g85
g71
NtRp1691
(dp1692
g74
(dp1693
sg83
g834
sg76
(lp1694
g69
(g90
g71
NtRp1695
(dp1696
g74
(dp1697
g94
g95
ssg83
g1691
sg76
(lp1698
S'wsgi_run_once'
p1699
asbag69
(g90
g71
NtRp1700
(dp1701
g74
(dp1702
g101
g102
ssg83
g1691
sg76
(lp1703
S':'
asbag69
(g90
g71
NtRp1704
(dp1705
g74
(dp1706
sg83
g1691
sg76
(lp1707
g69
(g70
g71
NtRp1708
(dp1709
g74
(dp1710
g82
I4
ssg83
g1704
sg76
(lp1711
g112
asbasbasbag69
(g85
g71
NtRp1712
(dp1713
g74
(dp1714
sg83
g834
sg76
(lp1715
g69
(g90
g71
NtRp1716
(dp1717
g74
(dp1718
g94
g95
ssg83
g1712
sg76
(lp1719
S'wsgi_url_scheme'
p1720
asbag69
(g90
g71
NtRp1721
(dp1722
g74
(dp1723
g101
g102
ssg83
g1712
sg76
(lp1724
S':'
asbag69
(g90
g71
NtRp1725
(dp1726
g74
(dp1727
sg83
g1712
sg76
(lp1728
g69
(g70
g71
NtRp1729
(dp1730
g74
(dp1731
g82
I4
ssg83
g1725
sg76
(lp1732
S'http'
p1733
asbasbasbag69
(g85
g71
NtRp1734
(dp1735
g74
(dp1736
sg83
g834
sg76
(lp1737
g69
(g90
g71
NtRp1738
(dp1739
g74
(dp1740
g94
g95
ssg83
g1734
sg76
(lp1741
S'wsgi_version'
p1742
asbag69
(g90
g71
NtRp1743
(dp1744
g74
(dp1745
g101
g102
ssg83
g1734
sg76
(lp1746
S':'
asbag69
(g90
g71
NtRp1747
(dp1748
g74
(dp1749
sg83
g1734
sg76
(lp1750
g69
(g70
g71
NtRp1751
(dp1752
g74
(dp1753
g82
I4
ssg83
g1747
sg76
(lp1754
g69
(g78
g71
NtRp1755
(dp1756
g74
(dp1757
g82
I3
ssg83
Nsg76
(lp1758
g69
(g85
g71
NtRp1759
(dp1760
g74
(dp1761
sg83
g1755
sg76
(lp1762
g69
(g90
g71
NtRp1763
(dp1764
g74
(dp1765
sg83
g1759
sg76
(lp1766
g69
(g70
g71
NtRp1767
(dp1768
g74
(dp1769
g82
I3
ssg83
g1763
sg76
(lp1770
S'1'
asbasbasbag69
(g85
g71
NtRp1771
(dp1772
g74
(dp1773
sg83
g1755
sg76
(lp1774
g69
(g90
g71
NtRp1775
(dp1776
g74
(dp1777
sg83
g1771
sg76
(lp1778
g69
(g70
g71
NtRp1779
(dp1780
g74
(dp1781
g82
I3
ssg83
g1775
sg76
(lp1782
S'0'
asbasbasbasbasbasbasbasbasbasbasbag69
(g85
g71
NtRp1783
(dp1784
g74
(dp1785
sg83
g79
sg76
(lp1786
g69
(g90
g71
NtRp1787
(dp1788
g74
(dp1789
g94
g95
ssg83
g1783
sg76
(lp1790
S'extension'
p1791
asbag69
(g90
g71
NtRp1792
(dp1793
g74
(dp1794
g101
g102
ssg83
g1783
sg76
(lp1795
S':'
asbag69
(g90
g71
NtRp1796
(dp1797
g74
(dp1798
sg83
g1783
sg76
(lp1799
g69
(g70
g71
NtRp1800
(dp1801
g74
(dp1802
g82
I5
ssg83
g1796
sg76
(lp1803
S'html'
p1804
asbasbasbag69
(g85
g71
NtRp1805
(dp1806
g74
(dp1807
sg83
g79
sg76
(lp1808
g69
(g90
g71
NtRp1809
(dp1810
g74
(dp1811
g94
g95
ssg83
g1805
sg76
(lp1812
S'folder'
p1813
asbag69
(g90
g71
NtRp1814
(dp1815
g74
(dp1816
g101
g102
ssg83
g1805
sg76
(lp1817
S':'
asbag69
(g90
g71
NtRp1818
(dp1819
g74
(dp1820
sg83
g1805
sg76
(lp1821
g69
(g70
g71
NtRp1822
(dp1823
g74
(dp1824
g82
I5
ssg83
g1818
sg76
(lp1825
S'/home/mka/web2py/applications/kurssihallinta/'
p1826
asbasbasbag69
(g85
g71
NtRp1827
(dp1828
g74
(dp1829
sg83
g79
sg76
(lp1830
g69
(g90
g71
NtRp1831
(dp1832
g74
(dp1833
g94
g95
ssg83
g1827
sg76
(lp1834
S'function'
p1835
asbag69
(g90
g71
NtRp1836
(dp1837
g74
(dp1838
g101
g102
ssg83
g1827
sg76
(lp1839
S':'
asbag69
(g90
g71
NtRp1840
(dp1841
g74
(dp1842
sg83
g1827
sg76
(lp1843
g69
(g70
g71
NtRp1844
(dp1845
g74
(dp1846
g82
I5
ssg83
g1840
sg76
(lp1847
S'opettaja_kaikki_kurssit'
p1848
asbasbasbag69
(g85
g71
NtRp1849
(dp1850
g74
(dp1851
sg83
g79
sg76
(lp1852
g69
(g90
g71
NtRp1853
(dp1854
g74
(dp1855
g94
g95
ssg83
g1849
sg76
(lp1856
S'get_vars'
p1857
asbag69
(g90
g71
NtRp1858
(dp1859
g74
(dp1860
g101
g102
ssg83
g1849
sg76
(lp1861
S':'
asbag69
(g90
g71
NtRp1862
(dp1863
g74
(dp1864
sg83
g1849
sg76
(lp1865
g69
(g70
g71
NtRp1866
(dp1867
g74
(dp1868
g82
I5
ssg83
g1862
sg76
(lp1869
g69
(g78
g71
NtRp1870
(dp1871
g74
(dp1872
g82
I4
ssg83
Nsg76
(lp1873
sbasbasbasbag69
(g85
g71
NtRp1874
(dp1875
g74
(dp1876
sg83
g79
sg76
(lp1877
g69
(g90
g71
NtRp1878
(dp1879
g74
(dp1880
g94
g95
ssg83
g1874
sg76
(lp1881
S'global_settings'
p1882
asbag69
(g90
g71
NtRp1883
(dp1884
g74
(dp1885
g101
g102
ssg83
g1874
sg76
(lp1886
S':'
asbag69
(g90
g71
NtRp1887
(dp1888
g74
(dp1889
sg83
g1874
sg76
(lp1890
g69
(g70
g71
NtRp1891
(dp1892
g74
(dp1893
g82
I5
ssg83
g1887
sg76
(lp1894
g69
(g78
g71
NtRp1895
(dp1896
g74
(dp1897
g82
I4
ssg83
Nsg76
(lp1898
g69
(g85
g71
NtRp1899
(dp1900
g74
(dp1901
sg83
g1895
sg76
(lp1902
g69
(g90
g71
NtRp1903
(dp1904
g74
(dp1905
g94
g95
ssg83
g1899
sg76
(lp1906
g846
asbag69
(g90
g71
NtRp1907
(dp1908
g74
(dp1909
g101
g102
ssg83
g1899
sg76
(lp1910
S':'
asbag69
(g90
g71
NtRp1911
(dp1912
g74
(dp1913
sg83
g1899
sg76
(lp1914
g69
(g70
g71
NtRp1915
(dp1916
g74
(dp1917
g82
I4
ssg83
g1911
sg76
(lp1918
S"set(['/home/mka/web2py/applications/examples/', '/home/mka/web2py/applications/myapp/', '/home/mka/web2py/applications/welcome/', '/home/mka/web2py/applications/admin/', '/home/mka/web2py/applications/kurssihallinta/'])"
p1919
asbasbasbag69
(g85
g71
NtRp1920
(dp1921
g74
(dp1922
sg83
g1895
sg76
(lp1923
g69
(g90
g71
NtRp1924
(dp1925
g74
(dp1926
g94
g95
ssg83
g1920
sg76
(lp1927
g868
asbag69
(g90
g71
NtRp1928
(dp1929
g74
(dp1930
g101
g102
ssg83
g1920
sg76
(lp1931
S':'
asbag69
(g90
g71
NtRp1932
(dp1933
g74
(dp1934
sg83
g1920
sg76
(lp1935
g69
(g70
g71
NtRp1936
(dp1937
g74
(dp1938
g82
I4
ssg83
g1932
sg76
(lp1939
g881
asbasbasbag69
(g85
g71
NtRp1940
(dp1941
g74
(dp1942
sg83
g1895
sg76
(lp1943
g69
(g90
g71
NtRp1944
(dp1945
g74
(dp1946
g94
g95
ssg83
g1940
sg76
(lp1947
g890
asbag69
(g90
g71
NtRp1948
(dp1949
g74
(dp1950
g101
g102
ssg83
g1940
sg76
(lp1951
S':'
asbag69
(g90
g71
NtRp1952
(dp1953
g74
(dp1954
sg83
g1940
sg76
(lp1955
g69
(g70
g71
NtRp1956
(dp1957
g74
(dp1958
g82
I4
ssg83
g1952
sg76
(lp1959
g69
(g78
g71
NtRp1960
(dp1961
g74
(dp1962
g82
I3
ssg83
Nsg76
(lp1963
sbasbasbasbag69
(g85
g71
NtRp1964
(dp1965
g74
(dp1966
sg83
g1895
sg76
(lp1967
g69
(g90
g71
NtRp1968
(dp1969
g74
(dp1970
g94
g95
ssg83
g1964
sg76
(lp1971
g915
asbag69
(g90
g71
NtRp1972
(dp1973
g74
(dp1974
g101
g102
ssg83
g1964
sg76
(lp1975
S':'
asbag69
(g90
g71
NtRp1976
(dp1977
g74
(dp1978
sg83
g1964
sg76
(lp1979
g69
(g70
g71
NtRp1980
(dp1981
g74
(dp1982
g82
I4
ssg83
g1976
sg76
(lp1983
S"<Values at 0x8feb86c: {'verbose': False, 'ip': '127.0.0.1', 'shutdown_timeout': 5, 'taskbar': False, 'port': 8000, 'maxthreads': None, 'softcron': False, 'server_name': 'mka3830TG', 'bpython': False, 'nogui': False, 'nocron': False, 'extcron': False, 'debuglevel': 30, 'test': None, 'folder': '/home/mka/web2py', 'config': '', 'import_models': False, 'winservice': '', 'shell': None, 'run': '', 'log_filename': 'httpserver.log', 'args': [''], 'socket_timeout': 1, 'profiler_filename': None, 'ssl_private_key': '', 'password': '<ask>', 'request_queue_size': 5, 'ssl_certificate': '', 'cronjob': False, 'plain': False, 'quiet': False, 'interfaces': None, 'minthreads': None, 'timeout': 10, 'numthreads': None, 'nobanner': False, 'pid_filename': 'httpserver.pid'}>"
p1984
asbasbasbag69
(g85
g71
NtRp1985
(dp1986
g74
(dp1987
sg83
g1895
sg76
(lp1988
g69
(g90
g71
NtRp1989
(dp1990
g74
(dp1991
g94
g95
ssg83
g1985
sg76
(lp1992
g937
asbag69
(g90
g71
NtRp1993
(dp1994
g74
(dp1995
g101
g102
ssg83
g1985
sg76
(lp1996
S':'
asbag69
(g90
g71
NtRp1997
(dp1998
g74
(dp1999
sg83
g1985
sg76
(lp2000
g69
(g70
g71
NtRp2001
(dp2002
g74
(dp2003
g82
I4
ssg83
g1997
sg76
(lp2004
S'set([])'
p2005
asbasbasbag69
(g85
g71
NtRp2006
(dp2007
g74
(dp2008
sg83
g1895
sg76
(lp2009
g69
(g90
g71
NtRp2010
(dp2011
g74
(dp2012
g94
g95
ssg83
g2006
sg76
(lp2013
g959
asbag69
(g90
g71
NtRp2014
(dp2015
g74
(dp2016
g101
g102
ssg83
g2006
sg76
(lp2017
S':'
asbag69
(g90
g71
NtRp2018
(dp2019
g74
(dp2020
sg83
g2006
sg76
(lp2021
g69
(g70
g71
NtRp2022
(dp2023
g74
(dp2024
g82
I4
ssg83
g2018
sg76
(lp2025
g112
asbasbasbag69
(g85
g71
NtRp2026
(dp2027
g74
(dp2028
sg83
g1895
sg76
(lp2029
g69
(g90
g71
NtRp2030
(dp2031
g74
(dp2032
g94
g95
ssg83
g2026
sg76
(lp2033
g980
asbag69
(g90
g71
NtRp2034
(dp2035
g74
(dp2036
g101
g102
ssg83
g2026
sg76
(lp2037
S':'
asbag69
(g90
g71
NtRp2038
(dp2039
g74
(dp2040
sg83
g2026
sg76
(lp2041
g69
(g70
g71
NtRp2042
(dp2043
g74
(dp2044
g82
I4
ssg83
g2038
sg76
(lp2045
g993
asbasbasbag69
(g85
g71
NtRp2046
(dp2047
g74
(dp2048
sg83
g1895
sg76
(lp2049
g69
(g90
g71
NtRp2050
(dp2051
g74
(dp2052
g94
g95
ssg83
g2046
sg76
(lp2053
g1200
asbag69
(g90
g71
NtRp2054
(dp2055
g74
(dp2056
g101
g102
ssg83
g2046
sg76
(lp2057
S':'
asbag69
(g90
g71
NtRp2058
(dp2059
g74
(dp2060
sg83
g2046
sg76
(lp2061
g69
(g70
g71
NtRp2062
(dp2063
g74
(dp2064
g82
I4
ssg83
g2058
sg76
(lp2065
g112
asbasbasbag69
(g85
g71
NtRp2066
(dp2067
g74
(dp2068
sg83
g1895
sg76
(lp2069
g69
(g90
g71
NtRp2070
(dp2071
g74
(dp2072
g94
g95
ssg83
g2066
sg76
(lp2073
g1221
asbag69
(g90
g71
NtRp2074
(dp2075
g74
(dp2076
g101
g102
ssg83
g2066
sg76
(lp2077
S':'
asbag69
(g90
g71
NtRp2078
(dp2079
g74
(dp2080
sg83
g2066
sg76
(lp2081
g69
(g70
g71
NtRp2082
(dp2083
g74
(dp2084
g82
I4
ssg83
g2078
sg76
(lp2085
g112
asbasbasbag69
(g85
g71
NtRp2086
(dp2087
g74
(dp2088
sg83
g1895
sg76
(lp2089
g69
(g90
g71
NtRp2090
(dp2091
g74
(dp2092
g94
g95
ssg83
g2086
sg76
(lp2093
g1459
asbag69
(g90
g71
NtRp2094
(dp2095
g74
(dp2096
g101
g102
ssg83
g2086
sg76
(lp2097
S':'
asbag69
(g90
g71
NtRp2098
(dp2099
g74
(dp2100
sg83
g2086
sg76
(lp2101
g69
(g70
g71
NtRp2102
(dp2103
g74
(dp2104
g82
I4
ssg83
g2098
sg76
(lp2105
g1472
asbasbasbag69
(g85
g71
NtRp2106
(dp2107
g74
(dp2108
sg83
g1895
sg76
(lp2109
g69
(g90
g71
NtRp2110
(dp2111
g74
(dp2112
g94
g95
ssg83
g2106
sg76
(lp2113
g1502
asbag69
(g90
g71
NtRp2114
(dp2115
g74
(dp2116
g101
g102
ssg83
g2106
sg76
(lp2117
S':'
asbag69
(g90
g71
NtRp2118
(dp2119
g74
(dp2120
sg83
g2106
sg76
(lp2121
g69
(g70
g71
NtRp2122
(dp2123
g74
(dp2124
g82
I4
ssg83
g2118
sg76
(lp2125
g69
(g78
g71
NtRp2126
(dp2127
g74
(dp2128
g82
I3
ssg83
Nsg76
(lp2129
g69
(g85
g71
NtRp2130
(dp2131
g74
(dp2132
sg83
g2126
sg76
(lp2133
g69
(g90
g71
NtRp2134
(dp2135
g74
(dp2136
sg83
g2130
sg76
(lp2137
g69
(g70
g71
NtRp2138
(dp2139
g74
(dp2140
g82
I3
ssg83
g2134
sg76
(lp2141
S'1'
asbasbasbag69
(g85
g71
NtRp2142
(dp2143
g74
(dp2144
sg83
g2126
sg76
(lp2145
g69
(g90
g71
NtRp2146
(dp2147
g74
(dp2148
sg83
g2142
sg76
(lp2149
g69
(g70
g71
NtRp2150
(dp2151
g74
(dp2152
g82
I3
ssg83
g2146
sg76
(lp2153
S'99'
p2154
asbasbasbag69
(g85
g71
NtRp2155
(dp2156
g74
(dp2157
sg83
g2126
sg76
(lp2158
g69
(g90
g71
NtRp2159
(dp2160
g74
(dp2161
sg83
g2155
sg76
(lp2162
g69
(g70
g71
NtRp2163
(dp2164
g74
(dp2165
g82
I3
ssg83
g2159
sg76
(lp2166
S'4'
asbasbasbag69
(g85
g71
NtRp2167
(dp2168
g74
(dp2169
sg83
g2126
sg76
(lp2170
g69
(g90
g71
NtRp2171
(dp2172
g74
(dp2173
sg83
g2167
sg76
(lp2174
g69
(g70
g71
NtRp2175
(dp2176
g74
(dp2177
g82
I3
ssg83
g2171
sg76
(lp2178
S'datetime.datetime(2011, 12, 14, 14, 46, 14)'
p2179
asbasbasbag69
(g85
g71
NtRp2180
(dp2181
g74
(dp2182
sg83
g2126
sg76
(lp2183
g69
(g90
g71
NtRp2184
(dp2185
g74
(dp2186
sg83
g2180
sg76
(lp2187
g69
(g70
g71
NtRp2188
(dp2189
g74
(dp2190
g82
I3
ssg83
g2184
sg76
(lp2191
g1581
asbasbasbasbasbasbasbasbasbasbasbag69
(g85
g71
NtRp2192
(dp2193
g74
(dp2194
sg83
g79
sg76
(lp2195
g69
(g90
g71
NtRp2196
(dp2197
g74
(dp2198
g94
g95
ssg83
g2192
sg76
(lp2199
S'is_https'
p2200
asbag69
(g90
g71
NtRp2201
(dp2202
g74
(dp2203
g101
g102
ssg83
g2192
sg76
(lp2204
S':'
asbag69
(g90
g71
NtRp2205
(dp2206
g74
(dp2207
sg83
g2192
sg76
(lp2208
g69
(g70
g71
NtRp2209
(dp2210
g74
(dp2211
g82
I5
ssg83
g2205
sg76
(lp2212
g112
asbasbasbag69
(g85
g71
NtRp2213
(dp2214
g74
(dp2215
sg83
g79
sg76
(lp2216
g69
(g90
g71
NtRp2217
(dp2218
g74
(dp2219
g94
g95
ssg83
g2213
sg76
(lp2220
S'is_local'
p2221
asbag69
(g90
g71
NtRp2222
(dp2223
g74
(dp2224
g101
g102
ssg83
g2213
sg76
(lp2225
S':'
asbag69
(g90
g71
NtRp2226
(dp2227
g74
(dp2228
sg83
g2213
sg76
(lp2229
g69
(g70
g71
NtRp2230
(dp2231
g74
(dp2232
g82
I5
ssg83
g2226
sg76
(lp2233
g1690
asbasbasbag69
(g85
g71
NtRp2234
(dp2235
g74
(dp2236
sg83
g79
sg76
(lp2237
g69
(g90
g71
NtRp2238
(dp2239
g74
(dp2240
g94
g95
ssg83
g2234
sg76
(lp2241
S'is_restful'
p2242
asbag69
(g90
g71
NtRp2243
(dp2244
g74
(dp2245
g101
g102
ssg83
g2234
sg76
(lp2246
S':'
asbag69
(g90
g71
NtRp2247
(dp2248
g74
(dp2249
sg83
g2234
sg76
(lp2250
g69
(g70
g71
NtRp2251
(dp2252
g74
(dp2253
g82
I5
ssg83
g2247
sg76
(lp2254
g112
asbasbasbag69
(g85
g71
NtRp2255
(dp2256
g74
(dp2257
sg83
g79
sg76
(lp2258
g69
(g90
g71
NtRp2259
(dp2260
g74
(dp2261
g94
g95
ssg83
g2255
sg76
(lp2262
S'now'
p2263
asbag69
(g90
g71
NtRp2264
(dp2265
g74
(dp2266
g101
g102
ssg83
g2255
sg76
(lp2267
S':'
asbag69
(g90
g71
NtRp2268
(dp2269
g74
(dp2270
sg83
g2255
sg76
(lp2271
g69
(g70
g71
NtRp2272
(dp2273
g74
(dp2274
g82
I5
ssg83
g2268
sg76
(lp2275
S'datetime.datetime(2014, 5, 24, 10, 33, 52, 955796)'
p2276
asbasbasbag69
(g85
g71
NtRp2277
(dp2278
g74
(dp2279
sg83
g79
sg76
(lp2280
g69
(g90
g71
NtRp2281
(dp2282
g74
(dp2283
g94
g95
ssg83
g2277
sg76
(lp2284
S'post_vars'
p2285
asbag69
(g90
g71
NtRp2286
(dp2287
g74
(dp2288
g101
g102
ssg83
g2277
sg76
(lp2289
S':'
asbag69
(g90
g71
NtRp2290
(dp2291
g74
(dp2292
sg83
g2277
sg76
(lp2293
g69
(g70
g71
NtRp2294
(dp2295
g74
(dp2296
g82
I5
ssg83
g2290
sg76
(lp2297
g69
(g78
g71
NtRp2298
(dp2299
g74
(dp2300
g82
I4
ssg83
Nsg76
(lp2301
sbasbasbasbag69
(g85
g71
NtRp2302
(dp2303
g74
(dp2304
sg83
g79
sg76
(lp2305
g69
(g90
g71
NtRp2306
(dp2307
g74
(dp2308
g94
g95
ssg83
g2302
sg76
(lp2309
S'url'
p2310
asbag69
(g90
g71
NtRp2311
(dp2312
g74
(dp2313
g101
g102
ssg83
g2302
sg76
(lp2314
S':'
asbag69
(g90
g71
NtRp2315
(dp2316
g74
(dp2317
sg83
g2302
sg76
(lp2318
g69
(g70
g71
NtRp2319
(dp2320
g74
(dp2321
g82
I5
ssg83
g2315
sg76
(lp2322
S'/kurssihallinta/default/opettaja_kaikki_kurssit'
p2323
asbasbasbag69
(g85
g71
NtRp2324
(dp2325
g74
(dp2326
sg83
g79
sg76
(lp2327
g69
(g90
g71
NtRp2328
(dp2329
g74
(dp2330
g94
g95
ssg83
g2324
sg76
(lp2331
S'utcnow'
p2332
asbag69
(g90
g71
NtRp2333
(dp2334
g74
(dp2335
g101
g102
ssg83
g2324
sg76
(lp2336
S':'
asbag69
(g90
g71
NtRp2337
(dp2338
g74
(dp2339
sg83
g2324
sg76
(lp2340
g69
(g70
g71
NtRp2341
(dp2342
g74
(dp2343
g82
I5
ssg83
g2337
sg76
(lp2344
S'datetime.datetime(2014, 5, 24, 7, 33, 52, 955818)'
p2345
asbasbasbag69
(g85
g71
NtRp2346
(dp2347
g74
(dp2348
sg83
g79
sg76
(lp2349
g69
(g90
g71
NtRp2350
(dp2351
g74
(dp2352
g94
g95
ssg83
g2346
sg76
(lp2353
S'uuid'
p2354
asbag69
(g90
g71
NtRp2355
(dp2356
g74
(dp2357
g101
g102
ssg83
g2346
sg76
(lp2358
S':'
asbag69
(g90
g71
NtRp2359
(dp2360
g74
(dp2361
sg83
g2346
sg76
(lp2362
g69
(g70
g71
NtRp2363
(dp2364
g74
(dp2365
g82
I5
ssg83
g2359
sg76
(lp2366
S'kurssihallinta/127.0.0.1.2014-05-24.10-33-52.380ac0d5-9deb-4389-9ca1-11dc3832269d'
p2367
asbasbasbag69
(g85
g71
NtRp2368
(dp2369
g74
(dp2370
sg83
g79
sg76
(lp2371
g69
(g90
g71
NtRp2372
(dp2373
g74
(dp2374
g94
g95
ssg83
g2368
sg76
(lp2375
S'vars'
p2376
asbag69
(g90
g71
NtRp2377
(dp2378
g74
(dp2379
g101
g102
ssg83
g2368
sg76
(lp2380
S':'
asbag69
(g90
g71
NtRp2381
(dp2382
g74
(dp2383
sg83
g2368
sg76
(lp2384
g69
(g70
g71
NtRp2385
(dp2386
g74
(dp2387
g82
I5
ssg83
g2381
sg76
(lp2388
g69
(g78
g71
NtRp2389
(dp2390
g74
(dp2391
g82
I4
ssg83
Nsg76
(lp2392
sbasbasbasbag69
(g85
g71
NtRp2393
(dp2394
g74
(dp2395
sg83
g79
sg76
(lp2396
g69
(g90
g71
NtRp2397
(dp2398
g74
(dp2399
g94
g95
ssg83
g2393
sg76
(lp2400
S'wsgi'
p2401
asbag69
(g90
g71
NtRp2402
(dp2403
g74
(dp2404
g101
g102
ssg83
g2393
sg76
(lp2405
S':'
asbag69
(g90
g71
NtRp2406
(dp2407
g74
(dp2408
sg83
g2393
sg76
(lp2409
g69
(g70
g71
NtRp2410
(dp2411
g74
(dp2412
g82
I5
ssg83
g2406
sg76
(lp2413
g69
(g78
g71
NtRp2414
(dp2415
g74
(dp2416
g82
I4
ssg83
Nsg76
(lp2417
g69
(g85
g71
NtRp2418
(dp2419
g74
(dp2420
sg83
g2414
sg76
(lp2421
g69
(g90
g71
NtRp2422
(dp2423
g74
(dp2424
g94
g95
ssg83
g2418
sg76
(lp2425
S'environ'
p2426
asbag69
(g90
g71
NtRp2427
(dp2428
g74
(dp2429
g101
g102
ssg83
g2418
sg76
(lp2430
S':'
asbag69
(g90
g71
NtRp2431
(dp2432
g74
(dp2433
sg83
g2418
sg76
(lp2434
g69
(g70
g71
NtRp2435
(dp2436
g74
(dp2437
g82
I4
ssg83
g2431
sg76
(lp2438
g69
(g78
g71
NtRp2439
(dp2440
g74
(dp2441
g82
I3
ssg83
Nsg76
(lp2442
g69
(g85
g71
NtRp2443
(dp2444
g74
(dp2445
sg83
g2439
sg76
(lp2446
g69
(g90
g71
NtRp2447
(dp2448
g74
(dp2449
g94
g95
ssg83
g2443
sg76
(lp2450
S'HTTP_ACCEPT'
p2451
asbag69
(g90
g71
NtRp2452
(dp2453
g74
(dp2454
g101
g102
ssg83
g2443
sg76
(lp2455
S':'
asbag69
(g90
g71
NtRp2456
(dp2457
g74
(dp2458
sg83
g2443
sg76
(lp2459
g69
(g70
g71
NtRp2460
(dp2461
g74
(dp2462
g82
I3
ssg83
g2456
sg76
(lp2463
g1015
asbasbasbag69
(g85
g71
NtRp2464
(dp2465
g74
(dp2466
sg83
g2439
sg76
(lp2467
g69
(g90
g71
NtRp2468
(dp2469
g74
(dp2470
g94
g95
ssg83
g2464
sg76
(lp2471
S'HTTP_ACCEPT_CHARSET'
p2472
asbag69
(g90
g71
NtRp2473
(dp2474
g74
(dp2475
g101
g102
ssg83
g2464
sg76
(lp2476
S':'
asbag69
(g90
g71
NtRp2477
(dp2478
g74
(dp2479
sg83
g2464
sg76
(lp2480
g69
(g70
g71
NtRp2481
(dp2482
g74
(dp2483
g82
I3
ssg83
g2477
sg76
(lp2484
g1037
asbasbasbag69
(g85
g71
NtRp2485
(dp2486
g74
(dp2487
sg83
g2439
sg76
(lp2488
g69
(g90
g71
NtRp2489
(dp2490
g74
(dp2491
g94
g95
ssg83
g2485
sg76
(lp2492
S'HTTP_ACCEPT_ENCODING'
p2493
asbag69
(g90
g71
NtRp2494
(dp2495
g74
(dp2496
g101
g102
ssg83
g2485
sg76
(lp2497
S':'
asbag69
(g90
g71
NtRp2498
(dp2499
g74
(dp2500
sg83
g2485
sg76
(lp2501
g69
(g70
g71
NtRp2502
(dp2503
g74
(dp2504
g82
I3
ssg83
g2498
sg76
(lp2505
g1059
asbasbasbag69
(g85
g71
NtRp2506
(dp2507
g74
(dp2508
sg83
g2439
sg76
(lp2509
g69
(g90
g71
NtRp2510
(dp2511
g74
(dp2512
g94
g95
ssg83
g2506
sg76
(lp2513
S'HTTP_ACCEPT_LANGUAGE'
p2514
asbag69
(g90
g71
NtRp2515
(dp2516
g74
(dp2517
g101
g102
ssg83
g2506
sg76
(lp2518
S':'
asbag69
(g90
g71
NtRp2519
(dp2520
g74
(dp2521
sg83
g2506
sg76
(lp2522
g69
(g70
g71
NtRp2523
(dp2524
g74
(dp2525
g82
I3
ssg83
g2519
sg76
(lp2526
g1081
asbasbasbag69
(g85
g71
NtRp2527
(dp2528
g74
(dp2529
sg83
g2439
sg76
(lp2530
g69
(g90
g71
NtRp2531
(dp2532
g74
(dp2533
g94
g95
ssg83
g2527
sg76
(lp2534
S'HTTP_CACHE_CONTROL'
p2535
asbag69
(g90
g71
NtRp2536
(dp2537
g74
(dp2538
g101
g102
ssg83
g2527
sg76
(lp2539
S':'
asbag69
(g90
g71
NtRp2540
(dp2541
g74
(dp2542
sg83
g2527
sg76
(lp2543
g69
(g70
g71
NtRp2544
(dp2545
g74
(dp2546
g82
I3
ssg83
g2540
sg76
(lp2547
g1103
asbasbasbag69
(g85
g71
NtRp2548
(dp2549
g74
(dp2550
sg83
g2439
sg76
(lp2551
g69
(g90
g71
NtRp2552
(dp2553
g74
(dp2554
g94
g95
ssg83
g2548
sg76
(lp2555
S'HTTP_CONNECTION'
p2556
asbag69
(g90
g71
NtRp2557
(dp2558
g74
(dp2559
g101
g102
ssg83
g2548
sg76
(lp2560
S':'
asbag69
(g90
g71
NtRp2561
(dp2562
g74
(dp2563
sg83
g2548
sg76
(lp2564
g69
(g70
g71
NtRp2565
(dp2566
g74
(dp2567
g82
I3
ssg83
g2561
sg76
(lp2568
g1125
asbasbasbag69
(g85
g71
NtRp2569
(dp2570
g74
(dp2571
sg83
g2439
sg76
(lp2572
g69
(g90
g71
NtRp2573
(dp2574
g74
(dp2575
g94
g95
ssg83
g2569
sg76
(lp2576
S'HTTP_COOKIE'
p2577
asbag69
(g90
g71
NtRp2578
(dp2579
g74
(dp2580
g101
g102
ssg83
g2569
sg76
(lp2581
S':'
asbag69
(g90
g71
NtRp2582
(dp2583
g74
(dp2584
sg83
g2569
sg76
(lp2585
g69
(g70
g71
NtRp2586
(dp2587
g74
(dp2588
g82
I3
ssg83
g2582
sg76
(lp2589
g1147
asbasbasbag69
(g85
g71
NtRp2590
(dp2591
g74
(dp2592
sg83
g2439
sg76
(lp2593
g69
(g90
g71
NtRp2594
(dp2595
g74
(dp2596
g94
g95
ssg83
g2590
sg76
(lp2597
S'HTTP_HOST'
p2598
asbag69
(g90
g71
NtRp2599
(dp2600
g74
(dp2601
g101
g102
ssg83
g2590
sg76
(lp2602
S':'
asbag69
(g90
g71
NtRp2603
(dp2604
g74
(dp2605
sg83
g2590
sg76
(lp2606
g69
(g70
g71
NtRp2607
(dp2608
g74
(dp2609
g82
I3
ssg83
g2603
sg76
(lp2610
g1169
asbasbasbag69
(g85
g71
NtRp2611
(dp2612
g74
(dp2613
sg83
g2439
sg76
(lp2614
g69
(g90
g71
NtRp2615
(dp2616
g74
(dp2617
g94
g95
ssg83
g2611
sg76
(lp2618
S'HTTP_USER_AGENT'
p2619
asbag69
(g90
g71
NtRp2620
(dp2621
g74
(dp2622
g101
g102
ssg83
g2611
sg76
(lp2623
S':'
asbag69
(g90
g71
NtRp2624
(dp2625
g74
(dp2626
sg83
g2611
sg76
(lp2627
g69
(g70
g71
NtRp2628
(dp2629
g74
(dp2630
g82
I3
ssg83
g2624
sg76
(lp2631
g1191
asbasbasbag69
(g85
g71
NtRp2632
(dp2633
g74
(dp2634
sg83
g2439
sg76
(lp2635
g69
(g90
g71
NtRp2636
(dp2637
g74
(dp2638
g94
g95
ssg83
g2632
sg76
(lp2639
S'PATH_INFO'
p2640
asbag69
(g90
g71
NtRp2641
(dp2642
g74
(dp2643
g101
g102
ssg83
g2632
sg76
(lp2644
S':'
asbag69
(g90
g71
NtRp2645
(dp2646
g74
(dp2647
sg83
g2632
sg76
(lp2648
g69
(g70
g71
NtRp2649
(dp2650
g74
(dp2651
g82
I3
ssg83
g2645
sg76
(lp2652
g1255
asbasbasbag69
(g85
g71
NtRp2653
(dp2654
g74
(dp2655
sg83
g2439
sg76
(lp2656
g69
(g90
g71
NtRp2657
(dp2658
g74
(dp2659
g94
g95
ssg83
g2653
sg76
(lp2660
S'QUERY_STRING'
p2661
asbag69
(g90
g71
NtRp2662
(dp2663
g74
(dp2664
g101
g102
ssg83
g2653
sg76
(lp2665
S':'
asbag69
(g90
g71
NtRp2666
(dp2667
g74
(dp2668
sg83
g2653
sg76
(lp2669
g69
(g70
g71
NtRp2670
(dp2671
g74
(dp2672
g82
I3
ssg83
g2666
sg76
(lp2673
S''
asbasbasbag69
(g85
g71
NtRp2674
(dp2675
g74
(dp2676
sg83
g2439
sg76
(lp2677
g69
(g90
g71
NtRp2678
(dp2679
g74
(dp2680
g94
g95
ssg83
g2674
sg76
(lp2681
S'REMOTE_ADDR'
p2682
asbag69
(g90
g71
NtRp2683
(dp2684
g74
(dp2685
g101
g102
ssg83
g2674
sg76
(lp2686
S':'
asbag69
(g90
g71
NtRp2687
(dp2688
g74
(dp2689
sg83
g2674
sg76
(lp2690
g69
(g70
g71
NtRp2691
(dp2692
g74
(dp2693
g82
I3
ssg83
g2687
sg76
(lp2694
g202
asbasbasbag69
(g85
g71
NtRp2695
(dp2696
g74
(dp2697
sg83
g2439
sg76
(lp2698
g69
(g90
g71
NtRp2699
(dp2700
g74
(dp2701
g94
g95
ssg83
g2695
sg76
(lp2702
S'REMOTE_PORT'
p2703
asbag69
(g90
g71
NtRp2704
(dp2705
g74
(dp2706
g101
g102
ssg83
g2695
sg76
(lp2707
S':'
asbag69
(g90
g71
NtRp2708
(dp2709
g74
(dp2710
sg83
g2695
sg76
(lp2711
g69
(g70
g71
NtRp2712
(dp2713
g74
(dp2714
g82
I3
ssg83
g2708
sg76
(lp2715
g1319
asbasbasbag69
(g85
g71
NtRp2716
(dp2717
g74
(dp2718
sg83
g2439
sg76
(lp2719
g69
(g90
g71
NtRp2720
(dp2721
g74
(dp2722
g94
g95
ssg83
g2716
sg76
(lp2723
S'REQUEST_METHOD'
p2724
asbag69
(g90
g71
NtRp2725
(dp2726
g74
(dp2727
g101
g102
ssg83
g2716
sg76
(lp2728
S':'
asbag69
(g90
g71
NtRp2729
(dp2730
g74
(dp2731
sg83
g2716
sg76
(lp2732
g69
(g70
g71
NtRp2733
(dp2734
g74
(dp2735
g82
I3
ssg83
g2729
sg76
(lp2736
g1341
asbasbasbag69
(g85
g71
NtRp2737
(dp2738
g74
(dp2739
sg83
g2439
sg76
(lp2740
g69
(g90
g71
NtRp2741
(dp2742
g74
(dp2743
g94
g95
ssg83
g2737
sg76
(lp2744
S'SCRIPT_NAME'
p2745
asbag69
(g90
g71
NtRp2746
(dp2747
g74
(dp2748
g101
g102
ssg83
g2737
sg76
(lp2749
S':'
asbag69
(g90
g71
NtRp2750
(dp2751
g74
(dp2752
sg83
g2737
sg76
(lp2753
g69
(g70
g71
NtRp2754
(dp2755
g74
(dp2756
g82
I3
ssg83
g2750
sg76
(lp2757
S''
asbasbasbag69
(g85
g71
NtRp2758
(dp2759
g74
(dp2760
sg83
g2439
sg76
(lp2761
g69
(g90
g71
NtRp2762
(dp2763
g74
(dp2764
g94
g95
ssg83
g2758
sg76
(lp2765
S'SERVER_NAME'
p2766
asbag69
(g90
g71
NtRp2767
(dp2768
g74
(dp2769
g101
g102
ssg83
g2758
sg76
(lp2770
S':'
asbag69
(g90
g71
NtRp2771
(dp2772
g74
(dp2773
sg83
g2758
sg76
(lp2774
g69
(g70
g71
NtRp2775
(dp2776
g74
(dp2777
g82
I3
ssg83
g2771
sg76
(lp2778
g1384
asbasbasbag69
(g85
g71
NtRp2779
(dp2780
g74
(dp2781
sg83
g2439
sg76
(lp2782
g69
(g90
g71
NtRp2783
(dp2784
g74
(dp2785
g94
g95
ssg83
g2779
sg76
(lp2786
S'SERVER_PORT'
p2787
asbag69
(g90
g71
NtRp2788
(dp2789
g74
(dp2790
g101
g102
ssg83
g2779
sg76
(lp2791
S':'
asbag69
(g90
g71
NtRp2792
(dp2793
g74
(dp2794
sg83
g2779
sg76
(lp2795
g69
(g70
g71
NtRp2796
(dp2797
g74
(dp2798
g82
I3
ssg83
g2792
sg76
(lp2799
g1406
asbasbasbag69
(g85
g71
NtRp2800
(dp2801
g74
(dp2802
sg83
g2439
sg76
(lp2803
g69
(g90
g71
NtRp2804
(dp2805
g74
(dp2806
g94
g95
ssg83
g2800
sg76
(lp2807
S'SERVER_PROTOCOL'
p2808
asbag69
(g90
g71
NtRp2809
(dp2810
g74
(dp2811
g101
g102
ssg83
g2800
sg76
(lp2812
S':'
asbag69
(g90
g71
NtRp2813
(dp2814
g74
(dp2815
sg83
g2800
sg76
(lp2816
g69
(g70
g71
NtRp2817
(dp2818
g74
(dp2819
g82
I3
ssg83
g2813
sg76
(lp2820
g1428
asbasbasbag69
(g85
g71
NtRp2821
(dp2822
g74
(dp2823
sg83
g2439
sg76
(lp2824
g69
(g90
g71
NtRp2825
(dp2826
g74
(dp2827
g94
g95
ssg83
g2821
sg76
(lp2828
S'SERVER_SOFTWARE'
p2829
asbag69
(g90
g71
NtRp2830
(dp2831
g74
(dp2832
g101
g102
ssg83
g2821
sg76
(lp2833
S':'
asbag69
(g90
g71
NtRp2834
(dp2835
g74
(dp2836
sg83
g2821
sg76
(lp2837
g69
(g70
g71
NtRp2838
(dp2839
g74
(dp2840
g82
I3
ssg83
g2834
sg76
(lp2841
g1450
asbasbasbag69
(g85
g71
NtRp2842
(dp2843
g74
(dp2844
sg83
g2439
sg76
(lp2845
g69
(g90
g71
NtRp2846
(dp2847
g74
(dp2848
g94
g95
ssg83
g2842
sg76
(lp2849
S'wsgi.errors'
p2850
asbag69
(g90
g71
NtRp2851
(dp2852
g74
(dp2853
g101
g102
ssg83
g2842
sg76
(lp2854
S':'
asbag69
(g90
g71
NtRp2855
(dp2856
g74
(dp2857
sg83
g2842
sg76
(lp2858
g69
(g70
g71
NtRp2859
(dp2860
g74
(dp2861
g82
I3
ssg83
g2855
sg76
(lp2862
S"<open file '<stderr>', mode 'w' at 0xb72ca0d0>"
p2863
asbasbasbag69
(g85
g71
NtRp2864
(dp2865
g74
(dp2866
sg83
g2439
sg76
(lp2867
g69
(g90
g71
NtRp2868
(dp2869
g74
(dp2870
g94
g95
ssg83
g2864
sg76
(lp2871
S'wsgi.file_wrapper'
p2872
asbag69
(g90
g71
NtRp2873
(dp2874
g74
(dp2875
g101
g102
ssg83
g2864
sg76
(lp2876
S':'
asbag69
(g90
g71
NtRp2877
(dp2878
g74
(dp2879
sg83
g2864
sg76
(lp2880
g69
(g70
g71
NtRp2881
(dp2882
g74
(dp2883
g82
I3
ssg83
g2877
sg76
(lp2884
S'<class wsgiref.util.FileWrapper at 0x8db505c>'
p2885
asbasbasbag69
(g85
g71
NtRp2886
(dp2887
g74
(dp2888
sg83
g2439
sg76
(lp2889
g69
(g90
g71
NtRp2890
(dp2891
g74
(dp2892
g94
g95
ssg83
g2886
sg76
(lp2893
S'wsgi.input'
p2894
asbag69
(g90
g71
NtRp2895
(dp2896
g74
(dp2897
g101
g102
ssg83
g2886
sg76
(lp2898
S':'
asbag69
(g90
g71
NtRp2899
(dp2900
g74
(dp2901
sg83
g2886
sg76
(lp2902
g69
(g70
g71
NtRp2903
(dp2904
g74
(dp2905
g82
I3
ssg83
g2899
sg76
(lp2906
S'<cStringIO.StringO object at 0xb0445a20>'
p2907
asbasbasbag69
(g85
g71
NtRp2908
(dp2909
g74
(dp2910
sg83
g2439
sg76
(lp2911
g69
(g90
g71
NtRp2912
(dp2913
g74
(dp2914
g94
g95
ssg83
g2908
sg76
(lp2915
S'wsgi.multiprocess'
p2916
asbag69
(g90
g71
NtRp2917
(dp2918
g74
(dp2919
g101
g102
ssg83
g2908
sg76
(lp2920
S':'
asbag69
(g90
g71
NtRp2921
(dp2922
g74
(dp2923
sg83
g2908
sg76
(lp2924
g69
(g70
g71
NtRp2925
(dp2926
g74
(dp2927
g82
I3
ssg83
g2921
sg76
(lp2928
g112
asbasbasbag69
(g85
g71
NtRp2929
(dp2930
g74
(dp2931
sg83
g2439
sg76
(lp2932
g69
(g90
g71
NtRp2933
(dp2934
g74
(dp2935
g94
g95
ssg83
g2929
sg76
(lp2936
S'wsgi.multithread'
p2937
asbag69
(g90
g71
NtRp2938
(dp2939
g74
(dp2940
g101
g102
ssg83
g2929
sg76
(lp2941
S':'
asbag69
(g90
g71
NtRp2942
(dp2943
g74
(dp2944
sg83
g2929
sg76
(lp2945
g69
(g70
g71
NtRp2946
(dp2947
g74
(dp2948
g82
I3
ssg83
g2942
sg76
(lp2949
g1690
asbasbasbag69
(g85
g71
NtRp2950
(dp2951
g74
(dp2952
sg83
g2439
sg76
(lp2953
g69
(g90
g71
NtRp2954
(dp2955
g74
(dp2956
g94
g95
ssg83
g2950
sg76
(lp2957
S'wsgi.run_once'
p2958
asbag69
(g90
g71
NtRp2959
(dp2960
g74
(dp2961
g101
g102
ssg83
g2950
sg76
(lp2962
S':'
asbag69
(g90
g71
NtRp2963
(dp2964
g74
(dp2965
sg83
g2950
sg76
(lp2966
g69
(g70
g71
NtRp2967
(dp2968
g74
(dp2969
g82
I3
ssg83
g2963
sg76
(lp2970
g112
asbasbasbag69
(g85
g71
NtRp2971
(dp2972
g74
(dp2973
sg83
g2439
sg76
(lp2974
g69
(g90
g71
NtRp2975
(dp2976
g74
(dp2977
g94
g95
ssg83
g2971
sg76
(lp2978
S'wsgi.url_scheme'
p2979
asbag69
(g90
g71
NtRp2980
(dp2981
g74
(dp2982
g101
g102
ssg83
g2971
sg76
(lp2983
S':'
asbag69
(g90
g71
NtRp2984
(dp2985
g74
(dp2986
sg83
g2971
sg76
(lp2987
g69
(g70
g71
NtRp2988
(dp2989
g74
(dp2990
g82
I3
ssg83
g2984
sg76
(lp2991
g1733
asbasbasbag69
(g85
g71
NtRp2992
(dp2993
g74
(dp2994
sg83
g2439
sg76
(lp2995
g69
(g90
g71
NtRp2996
(dp2997
g74
(dp2998
g94
g95
ssg83
g2992
sg76
(lp2999
S'wsgi.version'
p3000
asbag69
(g90
g71
NtRp3001
(dp3002
g74
(dp3003
g101
g102
ssg83
g2992
sg76
(lp3004
S':'
asbag69
(g90
g71
NtRp3005
(dp3006
g74
(dp3007
sg83
g2992
sg76
(lp3008
g69
(g70
g71
NtRp3009
(dp3010
g74
(dp3011
g82
I3
ssg83
g3005
sg76
(lp3012
S'1'
asbasbasbasbasbasbasbasbasbasbasbasbasbsS'frames'
p3013
(lp3014
(dp3015
S'file'
p3016
S'/usr/lib/pymodules/python2.7/gluon/restricted.py'
p3017
sS'dump'
p3018
(dp3019
S'environment'
p3020
S"{'A': <class 'gluon.html.A'>, 'B': <class 'gluon.html.B'>, 'BEAUTIFY': <class 'gluon.html.BEAUTIFY'>, 'BODY': <class 'gluon.html.BODY'>, 'BR': <class 'gluon.html.BR'>, 'BUTTON': <class 'gluon.html.BUTTON'>, 'CAT': <class 'gluon.html.CAT'>, 'CENTER': <class 'gluon.html.CENTER'>, 'CLEANUP': <class 'gluon.validators.CLEANUP'>, 'CODE': <class 'gluon.html.CODE'>, ...}"
p3021
sS'ccode'
p3022
S'<code object <module> at 0x930a5c0, file "/home/...pplications/kurssihallinta/models/db.py", line 3>'
p3023
ssS'lnum'
p3024
I204
sS'lines'
p3025
(dp3026
I199
S'    try:'
p3027
sI200
S'        if type(code) == types.CodeType:'
p3028
sI201
S'            ccode = code'
p3029
sI202
S'        else:'
p3030
sI203
S'            ccode = compile2(code,layer)'
p3031
sI204
S'        exec ccode in environment'
p3032
sI205
S'    except HTTP:'
p3033
sI206
S'        raise'
p3034
sI207
S'    except RestrictedError:'
p3035
sI208
S'        # do not encapsulate (obfuscate) the original RestrictedError'
p3036
ssS'call'
p3037
S'(code=\'# -*- coding: utf-8 -*-\\n\\ndb = DAL("sqlite://stor..._id.writable = db.post.image_id.readable = False\\n\', environment={\'A\': <class \'gluon.html.A\'>, \'B\': <class \'gluon.html.B\'>, \'BEAUTIFY\': <class \'gluon.html.BEAUTIFY\'>, \'BODY\': <class \'gluon.html.BODY\'>, \'BR\': <class \'gluon.html.BR\'>, \'BUTTON\': <class \'gluon.html.BUTTON\'>, \'CAT\': <class \'gluon.html.CAT\'>, \'CENTER\': <class \'gluon.html.CENTER\'>, \'CLEANUP\': <class \'gluon.validators.CLEANUP\'>, \'CODE\': <class \'gluon.html.CODE\'>, ...}, layer=\'/home/mka/web2py/applications/kurssihallinta/models/db.py\')'
p3038
sS'func'
p3039
S'restricted'
p3040
sa(dp3041
g3016
S'/home/mka/web2py/applications/kurssihallinta/models/db.py'
p3042
sg3018
(dp3043
S'builtinformat'
p3044
S'<built-in function format>'
p3045
ssg3024
I10
sg3025
(dp3046
I5
S"db.define_table('kurssityo',"
p3047
sI6
S"   Field('title', unique=True),"
p3048
sI7
S"   Field('palautettu', 'upload'),"
p3049
sI8
S"   Field('korjattu', 'upload'),"
p3050
sI9
S"   Field('arvosana','float'),"
p3051
sI10
S"   format = '%(title)s')"
p3052
sI11
S''
sI12
S"db.define_table('systeemi',"
p3053
sI13
S"   Field('kirjautunut'),"
p3054
sI14
S"   Field('viimeisin_bacup',date))"
p3055
ssg3037
S'()'
p3056
sg3039
S'<module>'
p3057
sa(dp3058
g3016
S'/usr/lib/pymodules/python2.7/gluon/dal.py'
p3059
sg3018
(dp3060
S'polymodel'
p3061
S'None'
p3062
ssg3024
I5097
sg3025
(dp3063
I5092
S"        if migrate or self._adapter.dbengine=='google:datastore':"
p3064
sI5093
S'            try:'
p3065
sI5094
S'                sql_locker.acquire()'
p3066
sI5095
S'                self._adapter.create_table(t,migrate=migrate,'
p3067
sI5096
S'                                           fake_migrate=fake_migrate,'
p3068
sI5097
S'                                           polymodel=polymodel)'
p3069
sI5098
S'            finally:'
p3070
sI5099
S'                sql_locker.release()'
p3071
sI5100
S'        else:'
p3072
sI5101
S'            t._dbt = None'
p3073
ssg3037
S"(self=<DAL {'_migrate_enabled': True, '_lastsql': '', ...'_uri_hash': 'c8b669d15150d7109e5f7ab36744a5b7'}>, tablename='kurssityo', *fields=(<gluon.dal.Field object>, <gluon.dal.Field object>, <gluon.dal.Field object>, <gluon.dal.Field object>), **args={'format': '%(title)s'})"
p3074
sg3039
S'define_table'
p3075
sa(dp3076
g3016
S'/usr/lib/pymodules/python2.7/gluon/dal.py'
p3077
sg3018
(dp3078
S'field.type'
p3079
S"'float'"
p3080
sS'field'
p3081
S'<gluon.dal.Field object>'
p3082
sS'field.name'
p3083
S"'arvosana'"
p3084
ssg3024
I624
sg3025
(dp3085
I619
S"                precision, scale = map(int,field.type[8:-1].split(','))"
p3086
sI620
S'                ftype = self.types[field.type[:7]] % \\'
p3087
sI621
S'                    dict(precision=precision,scale=scale)'
p3088
sI622
S'            elif not field.type in self.types:'
p3089
sI623
S"                raise SyntaxError, 'Field: unknown field type: %s for %s' % \\"
p3090
sI624
S'                    (field.type, field.name)'
p3091
sI625
S'            else:'
p3092
sI626
S'                ftype = self.types[field.type]\\'
p3093
sI627
S'                     % dict(length=field.length)'
p3094
sI628
S"            if not field.type.startswith('id') and not field.type.startswith('reference'):"
p3095
ssg3037
S"(self=<gluon.dal.SQLiteAdapter object>, table=<Table {'ALL': <gluon.dal.SQLALL object at 0xb04...>, 'id': <gluon.dal.Field object at 0xb0444bec>}>, migrate=True, fake_migrate=False, polymodel=None)"
p3096
sg3039
S'create_table'
p3097
sasS'pyver'
p3098
S'Python 2.7.3: /usr/bin/python'
p3099
sS'session'
p3100
g69
(g70
g71
NtRp3101
(dp3102
g74
(dp3103
sg76
(lp3104
g69
(g78
g71
NtRp3105
(dp3106
g74
(dp3107
g82
I5
ssg83
Nsg76
(lp3108
g69
(g85
g71
NtRp3109
(dp3110
g74
(dp3111
sg83
g3105
sg76
(lp3112
g69
(g90
g71
NtRp3113
(dp3114
g74
(dp3115
g94
g95
ssg83
g3109
sg76
(lp3116
S'flash'
p3117
asbag69
(g90
g71
NtRp3118
(dp3119
g74
(dp3120
g101
g102
ssg83
g3109
sg76
(lp3121
S':'
asbag69
(g90
g71
NtRp3122
(dp3123
g74
(dp3124
sg83
g3109
sg76
(lp3125
g69
(g70
g71
NtRp3126
(dp3127
g74
(dp3128
g82
I5
ssg83
g3122
sg76
(lp3129
S''
asbasbasbasbasbsS'etype'
p3130
S"<type 'exceptions.SyntaxError'>"
p3131
sS'date'
p3132
S'Sat May 24 10:33:53 2014'
p3133
sS'response'
p3134
g69
(g70
g71
NtRp3135
(dp3136
g74
(dp3137
sg76
(lp3138
g69
(g78
g71
NtRp3139
(dp3140
g74
(dp3141
g82
I5
ssg83
Nsg76
(lp3142
g69
(g85
g71
NtRp3143
(dp3144
g74
(dp3145
sg83
g3139
sg76
(lp3146
g69
(g90
g71
NtRp3147
(dp3148
g74
(dp3149
g94
g95
ssg83
g3143
sg76
(lp3150
g167
asbag69
(g90
g71
NtRp3151
(dp3152
g74
(dp3153
g101
g102
ssg83
g3143
sg76
(lp3154
S':'
asbag69
(g90
g71
NtRp3155
(dp3156
g74
(dp3157
sg83
g3143
sg76
(lp3158
g69
(g70
g71
NtRp3159
(dp3160
g74
(dp3161
g82
I5
ssg83
g3155
sg76
(lp3162
S'<cStringIO.StringO object at 0x94c1220>'
p3163
asbasbasbag69
(g85
g71
NtRp3164
(dp3165
g74
(dp3166
sg83
g3139
sg76
(lp3167
g69
(g90
g71
NtRp3168
(dp3169
g74
(dp3170
g94
g95
ssg83
g3164
sg76
(lp3171
g233
asbag69
(g90
g71
NtRp3172
(dp3173
g74
(dp3174
g101
g102
ssg83
g3164
sg76
(lp3175
S':'
asbag69
(g90
g71
NtRp3176
(dp3177
g74
(dp3178
sg83
g3164
sg76
(lp3179
g69
(g70
g71
NtRp3180
(dp3181
g74
(dp3182
g82
I5
ssg83
g3176
sg76
(lp3183
g69
(g78
g71
NtRp3184
(dp3185
g74
(dp3186
g82
I4
ssg83
Nsg76
(lp3187
g69
(g85
g71
NtRp3188
(dp3189
g74
(dp3190
sg83
g3184
sg76
(lp3191
g69
(g90
g71
NtRp3192
(dp3193
g74
(dp3194
g94
g95
ssg83
g3188
sg76
(lp3195
S'session_id_kurssihallinta'
p3196
asbag69
(g90
g71
NtRp3197
(dp3198
g74
(dp3199
g101
g102
ssg83
g3188
sg76
(lp3200
S':'
asbag69
(g90
g71
NtRp3201
(dp3202
g74
(dp3203
sg83
g3188
sg76
(lp3204
g69
(g70
g71
NtRp3205
(dp3206
g74
(dp3207
g82
I4
ssg83
g3201
sg76
(lp3208
g69
(g78
g71
NtRp3209
(dp3210
g74
(dp3211
g82
I3
ssg83
Nsg76
(lp3212
g69
(g85
g71
NtRp3213
(dp3214
g74
(dp3215
sg83
g3209
sg76
(lp3216
g69
(g90
g71
NtRp3217
(dp3218
g74
(dp3219
g94
g95
ssg83
g3213
sg76
(lp3220
g283
asbag69
(g90
g71
NtRp3221
(dp3222
g74
(dp3223
g101
g102
ssg83
g3213
sg76
(lp3224
S':'
asbag69
(g90
g71
NtRp3225
(dp3226
g74
(dp3227
sg83
g3213
sg76
(lp3228
g69
(g70
g71
NtRp3229
(dp3230
g74
(dp3231
g82
I3
ssg83
g3225
sg76
(lp3232
S''
asbasbasbag69
(g85
g71
NtRp3233
(dp3234
g74
(dp3235
sg83
g3209
sg76
(lp3236
g69
(g90
g71
NtRp3237
(dp3238
g74
(dp3239
g94
g95
ssg83
g3233
sg76
(lp3240
g304
asbag69
(g90
g71
NtRp3241
(dp3242
g74
(dp3243
g101
g102
ssg83
g3233
sg76
(lp3244
S':'
asbag69
(g90
g71
NtRp3245
(dp3246
g74
(dp3247
sg83
g3233
sg76
(lp3248
g69
(g70
g71
NtRp3249
(dp3250
g74
(dp3251
g82
I3
ssg83
g3245
sg76
(lp3252
S''
asbasbasbag69
(g85
g71
NtRp3253
(dp3254
g74
(dp3255
sg83
g3209
sg76
(lp3256
g69
(g90
g71
NtRp3257
(dp3258
g74
(dp3259
g94
g95
ssg83
g3253
sg76
(lp3260
g325
asbag69
(g90
g71
NtRp3261
(dp3262
g74
(dp3263
g101
g102
ssg83
g3253
sg76
(lp3264
S':'
asbag69
(g90
g71
NtRp3265
(dp3266
g74
(dp3267
sg83
g3253
sg76
(lp3268
g69
(g70
g71
NtRp3269
(dp3270
g74
(dp3271
g82
I3
ssg83
g3265
sg76
(lp3272
S''
asbasbasbag69
(g85
g71
NtRp3273
(dp3274
g74
(dp3275
sg83
g3209
sg76
(lp3276
g69
(g90
g71
NtRp3277
(dp3278
g74
(dp3279
g94
g95
ssg83
g3273
sg76
(lp3280
g346
asbag69
(g90
g71
NtRp3281
(dp3282
g74
(dp3283
g101
g102
ssg83
g3273
sg76
(lp3284
S':'
asbag69
(g90
g71
NtRp3285
(dp3286
g74
(dp3287
sg83
g3273
sg76
(lp3288
g69
(g70
g71
NtRp3289
(dp3290
g74
(dp3291
g82
I3
ssg83
g3285
sg76
(lp3292
S''
asbasbasbag69
(g85
g71
NtRp3293
(dp3294
g74
(dp3295
sg83
g3209
sg76
(lp3296
g69
(g90
g71
NtRp3297
(dp3298
g74
(dp3299
g94
g95
ssg83
g3293
sg76
(lp3300
g367
asbag69
(g90
g71
NtRp3301
(dp3302
g74
(dp3303
g101
g102
ssg83
g3293
sg76
(lp3304
S':'
asbag69
(g90
g71
NtRp3305
(dp3306
g74
(dp3307
sg83
g3293
sg76
(lp3308
g69
(g70
g71
NtRp3309
(dp3310
g74
(dp3311
g82
I3
ssg83
g3305
sg76
(lp3312
S''
asbasbasbag69
(g85
g71
NtRp3313
(dp3314
g74
(dp3315
sg83
g3209
sg76
(lp3316
g69
(g90
g71
NtRp3317
(dp3318
g74
(dp3319
g94
g95
ssg83
g3313
sg76
(lp3320
g388
asbag69
(g90
g71
NtRp3321
(dp3322
g74
(dp3323
g101
g102
ssg83
g3313
sg76
(lp3324
S':'
asbag69
(g90
g71
NtRp3325
(dp3326
g74
(dp3327
sg83
g3313
sg76
(lp3328
g69
(g70
g71
NtRp3329
(dp3330
g74
(dp3331
g82
I3
ssg83
g3325
sg76
(lp3332
S'/'
asbasbasbag69
(g85
g71
NtRp3333
(dp3334
g74
(dp3335
sg83
g3209
sg76
(lp3336
g69
(g90
g71
NtRp3337
(dp3338
g74
(dp3339
g94
g95
ssg83
g3333
sg76
(lp3340
g409
asbag69
(g90
g71
NtRp3341
(dp3342
g74
(dp3343
g101
g102
ssg83
g3333
sg76
(lp3344
S':'
asbag69
(g90
g71
NtRp3345
(dp3346
g74
(dp3347
sg83
g3333
sg76
(lp3348
g69
(g70
g71
NtRp3349
(dp3350
g74
(dp3351
g82
I3
ssg83
g3345
sg76
(lp3352
S''
asbasbasbag69
(g85
g71
NtRp3353
(dp3354
g74
(dp3355
sg83
g3209
sg76
(lp3356
g69
(g90
g71
NtRp3357
(dp3358
g74
(dp3359
g94
g95
ssg83
g3353
sg76
(lp3360
g430
asbag69
(g90
g71
NtRp3361
(dp3362
g74
(dp3363
g101
g102
ssg83
g3353
sg76
(lp3364
S':'
asbag69
(g90
g71
NtRp3365
(dp3366
g74
(dp3367
sg83
g3353
sg76
(lp3368
g69
(g70
g71
NtRp3369
(dp3370
g74
(dp3371
g82
I3
ssg83
g3365
sg76
(lp3372
S''
asbasbasbasbasbasbasbasbasbasbasbag69
(g85
g71
NtRp3373
(dp3374
g74
(dp3375
sg83
g3139
sg76
(lp3376
g69
(g90
g71
NtRp3377
(dp3378
g74
(dp3379
g94
g95
ssg83
g3373
sg76
(lp3380
S'files'
p3381
asbag69
(g90
g71
NtRp3382
(dp3383
g74
(dp3384
g101
g102
ssg83
g3373
sg76
(lp3385
S':'
asbag69
(g90
g71
NtRp3386
(dp3387
g74
(dp3388
sg83
g3373
sg76
(lp3389
g69
(g70
g71
NtRp3390
(dp3391
g74
(dp3392
g82
I5
ssg83
g3386
sg76
(lp3393
g69
(g78
g71
NtRp3394
(dp3395
g74
(dp3396
g82
I4
ssg83
Nsg76
(lp3397
sbasbasbasbag69
(g85
g71
NtRp3398
(dp3399
g74
(dp3400
sg83
g3139
sg76
(lp3401
g69
(g90
g71
NtRp3402
(dp3403
g74
(dp3404
g94
g95
ssg83
g3398
sg76
(lp3405
S'flash'
p3406
asbag69
(g90
g71
NtRp3407
(dp3408
g74
(dp3409
g101
g102
ssg83
g3398
sg76
(lp3410
S':'
asbag69
(g90
g71
NtRp3411
(dp3412
g74
(dp3413
sg83
g3398
sg76
(lp3414
g69
(g70
g71
NtRp3415
(dp3416
g74
(dp3417
g82
I5
ssg83
g3411
sg76
(lp3418
S''
asbasbasbag69
(g85
g71
NtRp3419
(dp3420
g74
(dp3421
sg83
g3139
sg76
(lp3422
g69
(g90
g71
NtRp3423
(dp3424
g74
(dp3425
g94
g95
ssg83
g3419
sg76
(lp3426
S'generic_patterns'
p3427
asbag69
(g90
g71
NtRp3428
(dp3429
g74
(dp3430
g101
g102
ssg83
g3419
sg76
(lp3431
S':'
asbag69
(g90
g71
NtRp3432
(dp3433
g74
(dp3434
sg83
g3419
sg76
(lp3435
g69
(g70
g71
NtRp3436
(dp3437
g74
(dp3438
g82
I5
ssg83
g3432
sg76
(lp3439
g69
(g78
g71
NtRp3440
(dp3441
g74
(dp3442
g82
I4
ssg83
Nsg76
(lp3443
sbasbasbasbag69
(g85
g71
NtRp3444
(dp3445
g74
(dp3446
sg83
g3139
sg76
(lp3447
g69
(g90
g71
NtRp3448
(dp3449
g74
(dp3450
g94
g95
ssg83
g3444
sg76
(lp3451
S'headers'
p3452
asbag69
(g90
g71
NtRp3453
(dp3454
g74
(dp3455
g101
g102
ssg83
g3444
sg76
(lp3456
S':'
asbag69
(g90
g71
NtRp3457
(dp3458
g74
(dp3459
sg83
g3444
sg76
(lp3460
g69
(g70
g71
NtRp3461
(dp3462
g74
(dp3463
g82
I5
ssg83
g3457
sg76
(lp3464
g69
(g78
g71
NtRp3465
(dp3466
g74
(dp3467
g82
I4
ssg83
Nsg76
(lp3468
g69
(g85
g71
NtRp3469
(dp3470
g74
(dp3471
sg83
g3465
sg76
(lp3472
g69
(g90
g71
NtRp3473
(dp3474
g74
(dp3475
g94
g95
ssg83
g3469
sg76
(lp3476
S'Cache-Control'
p3477
asbag69
(g90
g71
NtRp3478
(dp3479
g74
(dp3480
g101
g102
ssg83
g3469
sg76
(lp3481
S':'
asbag69
(g90
g71
NtRp3482
(dp3483
g74
(dp3484
sg83
g3469
sg76
(lp3485
g69
(g70
g71
NtRp3486
(dp3487
g74
(dp3488
g82
I4
ssg83
g3482
sg76
(lp3489
S'no-store, no-cache, must-revalidate, post-check=0, pre-check=0'
p3490
asbasbasbag69
(g85
g71
NtRp3491
(dp3492
g74
(dp3493
sg83
g3465
sg76
(lp3494
g69
(g90
g71
NtRp3495
(dp3496
g74
(dp3497
g94
g95
ssg83
g3491
sg76
(lp3498
S'Content-Type'
p3499
asbag69
(g90
g71
NtRp3500
(dp3501
g74
(dp3502
g101
g102
ssg83
g3491
sg76
(lp3503
S':'
asbag69
(g90
g71
NtRp3504
(dp3505
g74
(dp3506
sg83
g3491
sg76
(lp3507
g69
(g70
g71
NtRp3508
(dp3509
g74
(dp3510
g82
I4
ssg83
g3504
sg76
(lp3511
S'text/html; charset=utf-8'
p3512
asbasbasbag69
(g85
g71
NtRp3513
(dp3514
g74
(dp3515
sg83
g3465
sg76
(lp3516
g69
(g90
g71
NtRp3517
(dp3518
g74
(dp3519
g94
g95
ssg83
g3513
sg76
(lp3520
S'Expires'
p3521
asbag69
(g90
g71
NtRp3522
(dp3523
g74
(dp3524
g101
g102
ssg83
g3513
sg76
(lp3525
S':'
asbag69
(g90
g71
NtRp3526
(dp3527
g74
(dp3528
sg83
g3513
sg76
(lp3529
g69
(g70
g71
NtRp3530
(dp3531
g74
(dp3532
g82
I4
ssg83
g3526
sg76
(lp3533
S'Sat, 24 May 2014 07:33:52 GMT'
p3534
asbasbasbag69
(g85
g71
NtRp3535
(dp3536
g74
(dp3537
sg83
g3465
sg76
(lp3538
g69
(g90
g71
NtRp3539
(dp3540
g74
(dp3541
g94
g95
ssg83
g3535
sg76
(lp3542
S'Pragma'
p3543
asbag69
(g90
g71
NtRp3544
(dp3545
g74
(dp3546
g101
g102
ssg83
g3535
sg76
(lp3547
S':'
asbag69
(g90
g71
NtRp3548
(dp3549
g74
(dp3550
sg83
g3535
sg76
(lp3551
g69
(g70
g71
NtRp3552
(dp3553
g74
(dp3554
g82
I4
ssg83
g3548
sg76
(lp3555
S'no-cache'
p3556
asbasbasbag69
(g85
g71
NtRp3557
(dp3558
g74
(dp3559
sg83
g3465
sg76
(lp3560
g69
(g90
g71
NtRp3561
(dp3562
g74
(dp3563
g94
g95
ssg83
g3557
sg76
(lp3564
S'X-Powered-By'
p3565
asbag69
(g90
g71
NtRp3566
(dp3567
g74
(dp3568
g101
g102
ssg83
g3557
sg76
(lp3569
S':'
asbag69
(g90
g71
NtRp3570
(dp3571
g74
(dp3572
sg83
g3557
sg76
(lp3573
g69
(g70
g71
NtRp3574
(dp3575
g74
(dp3576
g82
I4
ssg83
g3570
sg76
(lp3577
S'web2py'
p3578
asbasbasbasbasbasbasbag69
(g85
g71
NtRp3579
(dp3580
g74
(dp3581
sg83
g3139
sg76
(lp3582
g69
(g90
g71
NtRp3583
(dp3584
g74
(dp3585
g94
g95
ssg83
g3579
sg76
(lp3586
S'menu'
p3587
asbag69
(g90
g71
NtRp3588
(dp3589
g74
(dp3590
g101
g102
ssg83
g3579
sg76
(lp3591
S':'
asbag69
(g90
g71
NtRp3592
(dp3593
g74
(dp3594
sg83
g3579
sg76
(lp3595
g69
(g70
g71
NtRp3596
(dp3597
g74
(dp3598
g82
I5
ssg83
g3592
sg76
(lp3599
g69
(g78
g71
NtRp3600
(dp3601
g74
(dp3602
g82
I4
ssg83
Nsg76
(lp3603
sbasbasbasbag69
(g85
g71
NtRp3604
(dp3605
g74
(dp3606
sg83
g3139
sg76
(lp3607
g69
(g90
g71
NtRp3608
(dp3609
g74
(dp3610
g94
g95
ssg83
g3604
sg76
(lp3611
S'meta'
p3612
asbag69
(g90
g71
NtRp3613
(dp3614
g74
(dp3615
g101
g102
ssg83
g3604
sg76
(lp3616
S':'
asbag69
(g90
g71
NtRp3617
(dp3618
g74
(dp3619
sg83
g3604
sg76
(lp3620
g69
(g70
g71
NtRp3621
(dp3622
g74
(dp3623
g82
I5
ssg83
g3617
sg76
(lp3624
g69
(g78
g71
NtRp3625
(dp3626
g74
(dp3627
g82
I4
ssg83
Nsg76
(lp3628
sbasbasbasbag69
(g85
g71
NtRp3629
(dp3630
g74
(dp3631
sg83
g3139
sg76
(lp3632
g69
(g90
g71
NtRp3633
(dp3634
g74
(dp3635
g94
g95
ssg83
g3629
sg76
(lp3636
S'postprocessing'
p3637
asbag69
(g90
g71
NtRp3638
(dp3639
g74
(dp3640
g101
g102
ssg83
g3629
sg76
(lp3641
S':'
asbag69
(g90
g71
NtRp3642
(dp3643
g74
(dp3644
sg83
g3629
sg76
(lp3645
g69
(g70
g71
NtRp3646
(dp3647
g74
(dp3648
g82
I5
ssg83
g3642
sg76
(lp3649
g69
(g78
g71
NtRp3650
(dp3651
g74
(dp3652
g82
I4
ssg83
Nsg76
(lp3653
sbasbasbasbag69
(g85
g71
NtRp3654
(dp3655
g74
(dp3656
sg83
g3139
sg76
(lp3657
g69
(g90
g71
NtRp3658
(dp3659
g74
(dp3660
g94
g95
ssg83
g3654
sg76
(lp3661
S'session_file'
p3662
asbag69
(g90
g71
NtRp3663
(dp3664
g74
(dp3665
g101
g102
ssg83
g3654
sg76
(lp3666
S':'
asbag69
(g90
g71
NtRp3667
(dp3668
g74
(dp3669
sg83
g3654
sg76
(lp3670
g69
(g70
g71
NtRp3671
(dp3672
g74
(dp3673
g82
I5
ssg83
g3667
sg76
(lp3674
S"<open file '/home/mka/web2py/applications/kurssihallinta/sessions/127.0.0.1-04007b50-a50e-4f99-8adc-6e576aa93981', mode 'rb+' at 0x92edee8>"
p3675
asbasbasbag69
(g85
g71
NtRp3676
(dp3677
g74
(dp3678
sg83
g3139
sg76
(lp3679
g69
(g90
g71
NtRp3680
(dp3681
g74
(dp3682
g94
g95
ssg83
g3676
sg76
(lp3683
S'session_filename'
p3684
asbag69
(g90
g71
NtRp3685
(dp3686
g74
(dp3687
g101
g102
ssg83
g3676
sg76
(lp3688
S':'
asbag69
(g90
g71
NtRp3689
(dp3690
g74
(dp3691
sg83
g3676
sg76
(lp3692
g69
(g70
g71
NtRp3693
(dp3694
g74
(dp3695
g82
I5
ssg83
g3689
sg76
(lp3696
S'/home/mka/web2py/applications/kurssihallinta/sessions/127.0.0.1-04007b50-a50e-4f99-8adc-6e576aa93981'
p3697
asbasbasbag69
(g85
g71
NtRp3698
(dp3699
g74
(dp3700
sg83
g3139
sg76
(lp3701
g69
(g90
g71
NtRp3702
(dp3703
g74
(dp3704
g94
g95
ssg83
g3698
sg76
(lp3705
S'session_id'
p3706
asbag69
(g90
g71
NtRp3707
(dp3708
g74
(dp3709
g101
g102
ssg83
g3698
sg76
(lp3710
S':'
asbag69
(g90
g71
NtRp3711
(dp3712
g74
(dp3713
sg83
g3698
sg76
(lp3714
g69
(g70
g71
NtRp3715
(dp3716
g74
(dp3717
g82
I5
ssg83
g3711
sg76
(lp3718
S'127.0.0.1-04007b50-a50e-4f99-8adc-6e576aa93981'
p3719
asbasbasbag69
(g85
g71
NtRp3720
(dp3721
g74
(dp3722
sg83
g3139
sg76
(lp3723
g69
(g90
g71
NtRp3724
(dp3725
g74
(dp3726
g94
g95
ssg83
g3720
sg76
(lp3727
S'session_id_name'
p3728
asbag69
(g90
g71
NtRp3729
(dp3730
g74
(dp3731
g101
g102
ssg83
g3720
sg76
(lp3732
S':'
asbag69
(g90
g71
NtRp3733
(dp3734
g74
(dp3735
sg83
g3720
sg76
(lp3736
g69
(g70
g71
NtRp3737
(dp3738
g74
(dp3739
g82
I5
ssg83
g3733
sg76
(lp3740
g3196
asbasbasbag69
(g85
g71
NtRp3741
(dp3742
g74
(dp3743
sg83
g3139
sg76
(lp3744
g69
(g90
g71
NtRp3745
(dp3746
g74
(dp3747
g94
g95
ssg83
g3741
sg76
(lp3748
S'session_locked'
p3749
asbag69
(g90
g71
NtRp3750
(dp3751
g74
(dp3752
g101
g102
ssg83
g3741
sg76
(lp3753
S':'
asbag69
(g90
g71
NtRp3754
(dp3755
g74
(dp3756
sg83
g3741
sg76
(lp3757
g69
(g70
g71
NtRp3758
(dp3759
g74
(dp3760
g82
I5
ssg83
g3754
sg76
(lp3761
g1690
asbasbasbag69
(g85
g71
NtRp3762
(dp3763
g74
(dp3764
sg83
g3139
sg76
(lp3765
g69
(g90
g71
NtRp3766
(dp3767
g74
(dp3768
g94
g95
ssg83
g3762
sg76
(lp3769
S'session_new'
p3770
asbag69
(g90
g71
NtRp3771
(dp3772
g74
(dp3773
g101
g102
ssg83
g3762
sg76
(lp3774
S':'
asbag69
(g90
g71
NtRp3775
(dp3776
g74
(dp3777
sg83
g3762
sg76
(lp3778
g69
(g70
g71
NtRp3779
(dp3780
g74
(dp3781
g82
I5
ssg83
g3775
sg76
(lp3782
g112
asbasbasbag69
(g85
g71
NtRp3783
(dp3784
g74
(dp3785
sg83
g3139
sg76
(lp3786
g69
(g90
g71
NtRp3787
(dp3788
g74
(dp3789
g94
g95
ssg83
g3783
sg76
(lp3790
S'status'
p3791
asbag69
(g90
g71
NtRp3792
(dp3793
g74
(dp3794
g101
g102
ssg83
g3783
sg76
(lp3795
S':'
asbag69
(g90
g71
NtRp3796
(dp3797
g74
(dp3798
sg83
g3783
sg76
(lp3799
g69
(g70
g71
NtRp3800
(dp3801
g74
(dp3802
g82
I5
ssg83
g3796
sg76
(lp3803
S'200'
p3804
asbasbasbag69
(g85
g71
NtRp3805
(dp3806
g74
(dp3807
sg83
g3139
sg76
(lp3808
g69
(g90
g71
NtRp3809
(dp3810
g74
(dp3811
g94
g95
ssg83
g3805
sg76
(lp3812
g2354
asbag69
(g90
g71
NtRp3813
(dp3814
g74
(dp3815
g101
g102
ssg83
g3805
sg76
(lp3816
S':'
asbag69
(g90
g71
NtRp3817
(dp3818
g74
(dp3819
sg83
g3805
sg76
(lp3820
g69
(g70
g71
NtRp3821
(dp3822
g74
(dp3823
g82
I5
ssg83
g3817
sg76
(lp3824
g2367
asbasbasbag69
(g85
g71
NtRp3825
(dp3826
g74
(dp3827
sg83
g3139
sg76
(lp3828
g69
(g90
g71
NtRp3829
(dp3830
g74
(dp3831
g94
g95
ssg83
g3825
sg76
(lp3832
S'view'
p3833
asbag69
(g90
g71
NtRp3834
(dp3835
g74
(dp3836
g101
g102
ssg83
g3825
sg76
(lp3837
S':'
asbag69
(g90
g71
NtRp3838
(dp3839
g74
(dp3840
sg83
g3825
sg76
(lp3841
g69
(g70
g71
NtRp3842
(dp3843
g74
(dp3844
g82
I5
ssg83
g3838
sg76
(lp3845
S'default/opettaja_kaikki_kurssit.html'
p3846
asbasbasbasbasbsS'locals'
p3847
(dp3848
S'polymodel'
p3849
S'None'
p3850
sS'sortable'
p3851
S'5'
sS'sql_fields_aux'
p3852
S"{'id': {'sql': 'INTEGER PRIMARY KEY AUTOINCREMENT'}, 'korjattu': {'sql': 'CHAR(512)'}, 'palautettu': {'sql': 'CHAR(512)'}, 'title': {'sql': 'CHAR(512) UNIQUE'}}"
p3853
sS'TFK'
p3854
g21
sS'migrate'
p3855
g1690
sS'fields'
p3856
S"['id INTEGER PRIMARY KEY AUTOINCREMENT', 'title CHAR(512) UNIQUE', 'palautettu CHAR(512)', 'korjattu CHAR(512)']"
p3857
sS'k'
S"'arvosana'"
p3858
sS'tablename'
p3859
S"'kurssityo'"
p3860
sS'fake_migrate'
p3861
g112
sS'field'
p3862
S'<gluon.dal.Field object>'
p3863
sS'ftype'
p3864
S"'CHAR(512)'"
p3865
sS'table'
p3866
S"<Table {'ALL': <gluon.dal.SQLALL object at 0xb04...>, 'id': <gluon.dal.Field object at 0xb0444bec>}>"
p3867
sS'sql_fields'
p3868
S"{'id': {'sortable': 1, 'sql': 'INTEGER PRIMARY KEY AUTOINCREMENT', 'type': 'id'}, 'korjattu': {'sortable': 4, 'sql': 'CHAR(512)', 'type': 'upload'}, 'palautettu': {'sortable': 3, 'sql': 'CHAR(512)', 'type': 'upload'}, 'title': {'sortable': 2, 'sql': 'CHAR(512) UNIQUE', 'type': 'string'}}"
p3869
sS'self'
p3870
S'<gluon.dal.SQLiteAdapter object>'
p3871
sssS'traceback'
p3872
S'Traceback (most recent call last):\n  File "/usr/lib/pymodules/python2.7/gluon/restricted.py", line 204, in restricted\n    exec ccode in environment\n  File "/home/mka/web2py/applications/kurssihallinta/models/db.py", line 10, in <module>\n    format = \'%(title)s\')\n  File "/usr/lib/pymodules/python2.7/gluon/dal.py", line 5097, in define_table\n    polymodel=polymodel)\n  File "/usr/lib/pymodules/python2.7/gluon/dal.py", line 624, in create_table\n    (field.type, field.name)\nSyntaxError: Field: unknown field type: float for arvosana\n'
p3873
s.