(dp1
S'output'
p2
S"<type 'exceptions.SyntaxError'> Field: unknown field type: float for arvosana"
p3
sS'layer'
p4
S'/home/mka/web2py/applications/kurssihallinta/models/db.py'
p5
sS'code'
p6
S'# -*- coding: utf-8 -*-\n\ndb = DAL("sqlite://storage.sqlite")\n\ndb.define_table(\'kurssityo\',\n   Field(\'title\', unique=True),\n   Field(\'palautettu\', \'upload\'),\n   Field(\'korjattu\', \'upload\'),\n   Field(\'arvosana\',\'float\'),\n   format = \'%(title)s\')\n\ndb.define_table(\'systeemi\',\n   Field(\'kirjautunut\'),\n   Field(\'viimeisin_bacup\',date))\n\n\ndb.kurssityo.title.requires = IS_NOT_IN_DB(db, db.kurssityo.title)\ndb.post.image_id.requires = IS_IN_DB(db, db.image.id, \'%(title)s\')\ndb.post.author.requires = IS_NOT_EMPTY()\ndb.post.email.requires = IS_EMAIL()\ndb.post.body.requires = IS_NOT_EMPTY()\n\ndb.post.image_id.writable = db.post.image_id.readable = False\n'
p7
sS'snapshot'
p8
(dp9
S'exception'
p10
(dp11
S'__getslice__'
p12
S"<method-wrapper '__getslice__' of exceptions.SyntaxError object>"
p13
sS'text'
p14
S'None'
p15
sS'__str__'
p16
S"<method-wrapper '__str__' of exceptions.SyntaxError object>"
p17
sS'__reduce__'
p18
S'<built-in method __reduce__ of exceptions.SyntaxError object>'
p19
sS'__dict__'
p20
S'{}'
p21
sS'__sizeof__'
p22
S'<built-in method __sizeof__ of exceptions.SyntaxError object>'
p23
sS'__init__'
p24
S"<method-wrapper '__init__' of exceptions.SyntaxError object>"
p25
sS'__setattr__'
p26
S"<method-wrapper '__setattr__' of exceptions.SyntaxError object>"
p27
sS'__reduce_ex__'
p28
S'<built-in method __reduce_ex__ of exceptions.SyntaxError object>'
p29
sS'__new__'
p30
S'<built-in method __new__ of type object>'
p31
sS'__format__'
p32
S'<built-in method __format__ of exceptions.SyntaxError object>'
p33
sS'__class__'
p34
S"<type 'exceptions.SyntaxError'>"
p35
sS'filename'
p36
S'None'
p37
sS'lineno'
p38
S'None'
p39
sS'msg'
p40
S"'Field: unknown field type: float for arvosana'"
p41
sS'__doc__'
p42
S"'Invalid syntax.'"
p43
sS'__getitem__'
p44
S"<method-wrapper '__getitem__' of exceptions.SyntaxError object>"
p45
sS'__setstate__'
p46
S'<built-in method __setstate__ of exceptions.SyntaxError object>'
p47
sS'__getattribute__'
p48
S"<method-wrapper '__getattribute__' of exceptions.SyntaxError object>"
p49
sS'print_file_and_line'
p50
S'None'
p51
sS'args'
p52
S"('Field: unknown field type: float for arvosana',)"
p53
sS'__subclasshook__'
p54
S'<built-in method __subclasshook__ of type object>'
p55
sS'offset'
p56
S'None'
p57
sS'__unicode__'
p58
S'<built-in method __unicode__ of exceptions.SyntaxError object>'
p59
sS'__delattr__'
p60
S"<method-wrapper '__delattr__' of exceptions.SyntaxError object>"
p61
sS'__repr__'
p62
S"<method-wrapper '__repr__' of exceptions.SyntaxError object>"
p63
sS'__hash__'
p64
S"<method-wrapper '__hash__' of exceptions.SyntaxError object>"
p65
ssS'evalue'
p66
S'Field: unknown field type: float for arvosana'
p67
sS'request'
p68
ccopy_reg
_reconstructor
p69
(cgluon.html
BEAUTIFY
p70
c__builtin__
object
p71
NtRp72
(dp73
S'attributes'
p74
(dp75
sS'components'
p76
(lp77
g69
(cgluon.html
TABLE
p78
g71
NtRp79
(dp80
g74
(dp81
S'level'
p82
I5
ssS'parent'
p83
Nsg76
(lp84
g69
(cgluon.html
TR
p85
g71
NtRp86
(dp87
g74
(dp88
sg83
g79
sg76
(lp89
g69
(cgluon.html
TD
p90
g71
NtRp91
(dp92
g74
(dp93
S'_style'
p94
S'font-weight:bold;vertical-align:top'
p95
ssg83
g86
sg76
(lp96
S'ajax'
p97
asbag69
(g90
g71
NtRp98
(dp99
g74
(dp100
S'_valign'
p101
S'top'
p102
ssg83
g86
sg76
(lp103
S':'
asbag69
(g90
g71
NtRp104
(dp105
g74
(dp106
sg83
g86
sg76
(lp107
g69
(g70
g71
NtRp108
(dp109
g74
(dp110
g82
I5
ssg83
g104
sg76
(lp111
S'False'
p112
asbasbasbag69
(g85
g71
NtRp113
(dp114
g74
(dp115
sg83
g79
sg76
(lp116
g69
(g90
g71
NtRp117
(dp118
g74
(dp119
g94
g95
ssg83
g113
sg76
(lp120
S'application'
p121
asbag69
(g90
g71
NtRp122
(dp123
g74
(dp124
g101
g102
ssg83
g113
sg76
(lp125
S':'
asbag69
(g90
g71
NtRp126
(dp127
g74
(dp128
sg83
g113
sg76
(lp129
g69
(g70
g71
NtRp130
(dp131
g74
(dp132
g82
I5
ssg83
g126
sg76
(lp133
S'kurssihallinta'
p134
asbasbasbag69
(g85
g71
NtRp135
(dp136
g74
(dp137
sg83
g79
sg76
(lp138
g69
(g90
g71
NtRp139
(dp140
g74
(dp141
g94
g95
ssg83
g135
sg76
(lp142
g52
asbag69
(g90
g71
NtRp143
(dp144
g74
(dp145
g101
g102
ssg83
g135
sg76
(lp146
S':'
asbag69
(g90
g71
NtRp147
(dp148
g74
(dp149
sg83
g135
sg76
(lp150
g69
(g70
g71
NtRp151
(dp152
g74
(dp153
g82
I5
ssg83
g147
sg76
(lp154
g69
(g78
g71
NtRp155
(dp156
g74
(dp157
g82
I4
ssg83
Nsg76
(lp158
sbasbasbasbag69
(g85
g71
NtRp159
(dp160
g74
(dp161
sg83
g79
sg76
(lp162
g69
(g90
g71
NtRp163
(dp164
g74
(dp165
g94
g95
ssg83
g159
sg76
(lp166
S'body'
p167
asbag69
(g90
g71
NtRp168
(dp169
g74
(dp170
g101
g102
ssg83
g159
sg76
(lp171
S':'
asbag69
(g90
g71
NtRp172
(dp173
g74
(dp174
sg83
g159
sg76
(lp175
g69
(g70
g71
NtRp176
(dp177
g74
(dp178
g82
I5
ssg83
g172
sg76
(lp179
S'<cStringIO.StringO object at 0xaae0c020>'
p180
asbasbasbag69
(g85
g71
NtRp181
(dp182
g74
(dp183
sg83
g79
sg76
(lp184
g69
(g90
g71
NtRp185
(dp186
g74
(dp187
g94
g95
ssg83
g181
sg76
(lp188
S'client'
p189
asbag69
(g90
g71
NtRp190
(dp191
g74
(dp192
g101
g102
ssg83
g181
sg76
(lp193
S':'
asbag69
(g90
g71
NtRp194
(dp195
g74
(dp196
sg83
g181
sg76
(lp197
g69
(g70
g71
NtRp198
(dp199
g74
(dp200
g82
I5
ssg83
g194
sg76
(lp201
S'127.0.0.1'
p202
asbasbasbag69
(g85
g71
NtRp203
(dp204
g74
(dp205
sg83
g79
sg76
(lp206
g69
(g90
g71
NtRp207
(dp208
g74
(dp209
g94
g95
ssg83
g203
sg76
(lp210
S'controller'
p211
asbag69
(g90
g71
NtRp212
(dp213
g74
(dp214
g101
g102
ssg83
g203
sg76
(lp215
S':'
asbag69
(g90
g71
NtRp216
(dp217
g74
(dp218
sg83
g203
sg76
(lp219
g69
(g70
g71
NtRp220
(dp221
g74
(dp222
g82
I5
ssg83
g216
sg76
(lp223
S'default'
p224
asbasbasbag69
(g85
g71
NtRp225
(dp226
g74
(dp227
sg83
g79
sg76
(lp228
g69
(g90
g71
NtRp229
(dp230
g74
(dp231
g94
g95
ssg83
g225
sg76
(lp232
S'cookies'
p233
asbag69
(g90
g71
NtRp234
(dp235
g74
(dp236
g101
g102
ssg83
g225
sg76
(lp237
S':'
asbag69
(g90
g71
NtRp238
(dp239
g74
(dp240
sg83
g225
sg76
(lp241
g69
(g70
g71
NtRp242
(dp243
g74
(dp244
g82
I5
ssg83
g238
sg76
(lp245
g69
(g78
g71
NtRp246
(dp247
g74
(dp248
g82
I4
ssg83
Nsg76
(lp249
g69
(g85
g71
NtRp250
(dp251
g74
(dp252
sg83
g246
sg76
(lp253
g69
(g90
g71
NtRp254
(dp255
g74
(dp256
g94
g95
ssg83
g250
sg76
(lp257
S'session_id_admin'
p258
asbag69
(g90
g71
NtRp259
(dp260
g74
(dp261
g101
g102
ssg83
g250
sg76
(lp262
S':'
asbag69
(g90
g71
NtRp263
(dp264
g74
(dp265
sg83
g250
sg76
(lp266
g69
(g70
g71
NtRp267
(dp268
g74
(dp269
g82
I4
ssg83
g263
sg76
(lp270
g69
(g78
g71
NtRp271
(dp272
g74
(dp273
g82
I3
ssg83
Nsg76
(lp274
g69
(g85
g71
NtRp275
(dp276
g74
(dp277
sg83
g271
sg76
(lp278
g69
(g90
g71
NtRp279
(dp280
g74
(dp281
g94
g95
ssg83
g275
sg76
(lp282
S'comment'
p283
asbag69
(g90
g71
NtRp284
(dp285
g74
(dp286
g101
g102
ssg83
g275
sg76
(lp287
S':'
asbag69
(g90
g71
NtRp288
(dp289
g74
(dp290
sg83
g275
sg76
(lp291
g69
(g70
g71
NtRp292
(dp293
g74
(dp294
g82
I3
ssg83
g288
sg76
(lp295
S''
asbasbasbag69
(g85
g71
NtRp296
(dp297
g74
(dp298
sg83
g271
sg76
(lp299
g69
(g90
g71
NtRp300
(dp301
g74
(dp302
g94
g95
ssg83
g296
sg76
(lp303
S'domain'
p304
asbag69
(g90
g71
NtRp305
(dp306
g74
(dp307
g101
g102
ssg83
g296
sg76
(lp308
S':'
asbag69
(g90
g71
NtRp309
(dp310
g74
(dp311
sg83
g296
sg76
(lp312
g69
(g70
g71
NtRp313
(dp314
g74
(dp315
g82
I3
ssg83
g309
sg76
(lp316
S''
asbasbasbag69
(g85
g71
NtRp317
(dp318
g74
(dp319
sg83
g271
sg76
(lp320
g69
(g90
g71
NtRp321
(dp322
g74
(dp323
g94
g95
ssg83
g317
sg76
(lp324
S'expires'
p325
asbag69
(g90
g71
NtRp326
(dp327
g74
(dp328
g101
g102
ssg83
g317
sg76
(lp329
S':'
asbag69
(g90
g71
NtRp330
(dp331
g74
(dp332
sg83
g317
sg76
(lp333
g69
(g70
g71
NtRp334
(dp335
g74
(dp336
g82
I3
ssg83
g330
sg76
(lp337
S''
asbasbasbag69
(g85
g71
NtRp338
(dp339
g74
(dp340
sg83
g271
sg76
(lp341
g69
(g90
g71
NtRp342
(dp343
g74
(dp344
g94
g95
ssg83
g338
sg76
(lp345
S'httponly'
p346
asbag69
(g90
g71
NtRp347
(dp348
g74
(dp349
g101
g102
ssg83
g338
sg76
(lp350
S':'
asbag69
(g90
g71
NtRp351
(dp352
g74
(dp353
sg83
g338
sg76
(lp354
g69
(g70
g71
NtRp355
(dp356
g74
(dp357
g82
I3
ssg83
g351
sg76
(lp358
S''
asbasbasbag69
(g85
g71
NtRp359
(dp360
g74
(dp361
sg83
g271
sg76
(lp362
g69
(g90
g71
NtRp363
(dp364
g74
(dp365
g94
g95
ssg83
g359
sg76
(lp366
S'max-age'
p367
asbag69
(g90
g71
NtRp368
(dp369
g74
(dp370
g101
g102
ssg83
g359
sg76
(lp371
S':'
asbag69
(g90
g71
NtRp372
(dp373
g74
(dp374
sg83
g359
sg76
(lp375
g69
(g70
g71
NtRp376
(dp377
g74
(dp378
g82
I3
ssg83
g372
sg76
(lp379
S''
asbasbasbag69
(g85
g71
NtRp380
(dp381
g74
(dp382
sg83
g271
sg76
(lp383
g69
(g90
g71
NtRp384
(dp385
g74
(dp386
g94
g95
ssg83
g380
sg76
(lp387
S'path'
p388
asbag69
(g90
g71
NtRp389
(dp390
g74
(dp391
g101
g102
ssg83
g380
sg76
(lp392
S':'
asbag69
(g90
g71
NtRp393
(dp394
g74
(dp395
sg83
g380
sg76
(lp396
g69
(g70
g71
NtRp397
(dp398
g74
(dp399
g82
I3
ssg83
g393
sg76
(lp400
S''
asbasbasbag69
(g85
g71
NtRp401
(dp402
g74
(dp403
sg83
g271
sg76
(lp404
g69
(g90
g71
NtRp405
(dp406
g74
(dp407
g94
g95
ssg83
g401
sg76
(lp408
S'secure'
p409
asbag69
(g90
g71
NtRp410
(dp411
g74
(dp412
g101
g102
ssg83
g401
sg76
(lp413
S':'
asbag69
(g90
g71
NtRp414
(dp415
g74
(dp416
sg83
g401
sg76
(lp417
g69
(g70
g71
NtRp418
(dp419
g74
(dp420
g82
I3
ssg83
g414
sg76
(lp421
S''
asbasbasbag69
(g85
g71
NtRp422
(dp423
g74
(dp424
sg83
g271
sg76
(lp425
g69
(g90
g71
NtRp426
(dp427
g74
(dp428
g94
g95
ssg83
g422
sg76
(lp429
S'version'
p430
asbag69
(g90
g71
NtRp431
(dp432
g74
(dp433
g101
g102
ssg83
g422
sg76
(lp434
S':'
asbag69
(g90
g71
NtRp435
(dp436
g74
(dp437
sg83
g422
sg76
(lp438
g69
(g70
g71
NtRp439
(dp440
g74
(dp441
g82
I3
ssg83
g435
sg76
(lp442
S''
asbasbasbasbasbasbasbag69
(g85
g71
NtRp443
(dp444
g74
(dp445
sg83
g246
sg76
(lp446
g69
(g90
g71
NtRp447
(dp448
g74
(dp449
g94
g95
ssg83
g443
sg76
(lp450
S'session_id_kurssihallinta'
p451
asbag69
(g90
g71
NtRp452
(dp453
g74
(dp454
g101
g102
ssg83
g443
sg76
(lp455
S':'
asbag69
(g90
g71
NtRp456
(dp457
g74
(dp458
sg83
g443
sg76
(lp459
g69
(g70
g71
NtRp460
(dp461
g74
(dp462
g82
I4
ssg83
g456
sg76
(lp463
g69
(g78
g71
NtRp464
(dp465
g74
(dp466
g82
I3
ssg83
Nsg76
(lp467
g69
(g85
g71
NtRp468
(dp469
g74
(dp470
sg83
g464
sg76
(lp471
g69
(g90
g71
NtRp472
(dp473
g74
(dp474
g94
g95
ssg83
g468
sg76
(lp475
g283
asbag69
(g90
g71
NtRp476
(dp477
g74
(dp478
g101
g102
ssg83
g468
sg76
(lp479
S':'
asbag69
(g90
g71
NtRp480
(dp481
g74
(dp482
sg83
g468
sg76
(lp483
g69
(g70
g71
NtRp484
(dp485
g74
(dp486
g82
I3
ssg83
g480
sg76
(lp487
S''
asbasbasbag69
(g85
g71
NtRp488
(dp489
g74
(dp490
sg83
g464
sg76
(lp491
g69
(g90
g71
NtRp492
(dp493
g74
(dp494
g94
g95
ssg83
g488
sg76
(lp495
g304
asbag69
(g90
g71
NtRp496
(dp497
g74
(dp498
g101
g102
ssg83
g488
sg76
(lp499
S':'
asbag69
(g90
g71
NtRp500
(dp501
g74
(dp502
sg83
g488
sg76
(lp503
g69
(g70
g71
NtRp504
(dp505
g74
(dp506
g82
I3
ssg83
g500
sg76
(lp507
S''
asbasbasbag69
(g85
g71
NtRp508
(dp509
g74
(dp510
sg83
g464
sg76
(lp511
g69
(g90
g71
NtRp512
(dp513
g74
(dp514
g94
g95
ssg83
g508
sg76
(lp515
g325
asbag69
(g90
g71
NtRp516
(dp517
g74
(dp518
g101
g102
ssg83
g508
sg76
(lp519
S':'
asbag69
(g90
g71
NtRp520
(dp521
g74
(dp522
sg83
g508
sg76
(lp523
g69
(g70
g71
NtRp524
(dp525
g74
(dp526
g82
I3
ssg83
g520
sg76
(lp527
S''
asbasbasbag69
(g85
g71
NtRp528
(dp529
g74
(dp530
sg83
g464
sg76
(lp531
g69
(g90
g71
NtRp532
(dp533
g74
(dp534
g94
g95
ssg83
g528
sg76
(lp535
g346
asbag69
(g90
g71
NtRp536
(dp537
g74
(dp538
g101
g102
ssg83
g528
sg76
(lp539
S':'
asbag69
(g90
g71
NtRp540
(dp541
g74
(dp542
sg83
g528
sg76
(lp543
g69
(g70
g71
NtRp544
(dp545
g74
(dp546
g82
I3
ssg83
g540
sg76
(lp547
S''
asbasbasbag69
(g85
g71
NtRp548
(dp549
g74
(dp550
sg83
g464
sg76
(lp551
g69
(g90
g71
NtRp552
(dp553
g74
(dp554
g94
g95
ssg83
g548
sg76
(lp555
g367
asbag69
(g90
g71
NtRp556
(dp557
g74
(dp558
g101
g102
ssg83
g548
sg76
(lp559
S':'
asbag69
(g90
g71
NtRp560
(dp561
g74
(dp562
sg83
g548
sg76
(lp563
g69
(g70
g71
NtRp564
(dp565
g74
(dp566
g82
I3
ssg83
g560
sg76
(lp567
S''
asbasbasbag69
(g85
g71
NtRp568
(dp569
g74
(dp570
sg83
g464
sg76
(lp571
g69
(g90
g71
NtRp572
(dp573
g74
(dp574
g94
g95
ssg83
g568
sg76
(lp575
g388
asbag69
(g90
g71
NtRp576
(dp577
g74
(dp578
g101
g102
ssg83
g568
sg76
(lp579
S':'
asbag69
(g90
g71
NtRp580
(dp581
g74
(dp582
sg83
g568
sg76
(lp583
g69
(g70
g71
NtRp584
(dp585
g74
(dp586
g82
I3
ssg83
g580
sg76
(lp587
S''
asbasbasbag69
(g85
g71
NtRp588
(dp589
g74
(dp590
sg83
g464
sg76
(lp591
g69
(g90
g71
NtRp592
(dp593
g74
(dp594
g94
g95
ssg83
g588
sg76
(lp595
g409
asbag69
(g90
g71
NtRp596
(dp597
g74
(dp598
g101
g102
ssg83
g588
sg76
(lp599
S':'
asbag69
(g90
g71
NtRp600
(dp601
g74
(dp602
sg83
g588
sg76
(lp603
g69
(g70
g71
NtRp604
(dp605
g74
(dp606
g82
I3
ssg83
g600
sg76
(lp607
S''
asbasbasbag69
(g85
g71
NtRp608
(dp609
g74
(dp610
sg83
g464
sg76
(lp611
g69
(g90
g71
NtRp612
(dp613
g74
(dp614
g94
g95
ssg83
g608
sg76
(lp615
g430
asbag69
(g90
g71
NtRp616
(dp617
g74
(dp618
g101
g102
ssg83
g608
sg76
(lp619
S':'
asbag69
(g90
g71
NtRp620
(dp621
g74
(dp622
sg83
g608
sg76
(lp623
g69
(g70
g71
NtRp624
(dp625
g74
(dp626
g82
I3
ssg83
g620
sg76
(lp627
S''
asbasbasbasbasbasbasbag69
(g85
g71
NtRp628
(dp629
g74
(dp630
sg83
g246
sg76
(lp631
g69
(g90
g71
NtRp632
(dp633
g74
(dp634
g94
g95
ssg83
g628
sg76
(lp635
S'session_id_welcome'
p636
asbag69
(g90
g71
NtRp637
(dp638
g74
(dp639
g101
g102
ssg83
g628
sg76
(lp640
S':'
asbag69
(g90
g71
NtRp641
(dp642
g74
(dp643
sg83
g628
sg76
(lp644
g69
(g70
g71
NtRp645
(dp646
g74
(dp647
g82
I4
ssg83
g641
sg76
(lp648
g69
(g78
g71
NtRp649
(dp650
g74
(dp651
g82
I3
ssg83
Nsg76
(lp652
g69
(g85
g71
NtRp653
(dp654
g74
(dp655
sg83
g649
sg76
(lp656
g69
(g90
g71
NtRp657
(dp658
g74
(dp659
g94
g95
ssg83
g653
sg76
(lp660
g283
asbag69
(g90
g71
NtRp661
(dp662
g74
(dp663
g101
g102
ssg83
g653
sg76
(lp664
S':'
asbag69
(g90
g71
NtRp665
(dp666
g74
(dp667
sg83
g653
sg76
(lp668
g69
(g70
g71
NtRp669
(dp670
g74
(dp671
g82
I3
ssg83
g665
sg76
(lp672
S''
asbasbasbag69
(g85
g71
NtRp673
(dp674
g74
(dp675
sg83
g649
sg76
(lp676
g69
(g90
g71
NtRp677
(dp678
g74
(dp679
g94
g95
ssg83
g673
sg76
(lp680
g304
asbag69
(g90
g71
NtRp681
(dp682
g74
(dp683
g101
g102
ssg83
g673
sg76
(lp684
S':'
asbag69
(g90
g71
NtRp685
(dp686
g74
(dp687
sg83
g673
sg76
(lp688
g69
(g70
g71
NtRp689
(dp690
g74
(dp691
g82
I3
ssg83
g685
sg76
(lp692
S''
asbasbasbag69
(g85
g71
NtRp693
(dp694
g74
(dp695
sg83
g649
sg76
(lp696
g69
(g90
g71
NtRp697
(dp698
g74
(dp699
g94
g95
ssg83
g693
sg76
(lp700
g325
asbag69
(g90
g71
NtRp701
(dp702
g74
(dp703
g101
g102
ssg83
g693
sg76
(lp704
S':'
asbag69
(g90
g71
NtRp705
(dp706
g74
(dp707
sg83
g693
sg76
(lp708
g69
(g70
g71
NtRp709
(dp710
g74
(dp711
g82
I3
ssg83
g705
sg76
(lp712
S''
asbasbasbag69
(g85
g71
NtRp713
(dp714
g74
(dp715
sg83
g649
sg76
(lp716
g69
(g90
g71
NtRp717
(dp718
g74
(dp719
g94
g95
ssg83
g713
sg76
(lp720
g346
asbag69
(g90
g71
NtRp721
(dp722
g74
(dp723
g101
g102
ssg83
g713
sg76
(lp724
S':'
asbag69
(g90
g71
NtRp725
(dp726
g74
(dp727
sg83
g713
sg76
(lp728
g69
(g70
g71
NtRp729
(dp730
g74
(dp731
g82
I3
ssg83
g725
sg76
(lp732
S''
asbasbasbag69
(g85
g71
NtRp733
(dp734
g74
(dp735
sg83
g649
sg76
(lp736
g69
(g90
g71
NtRp737
(dp738
g74
(dp739
g94
g95
ssg83
g733
sg76
(lp740
g367
asbag69
(g90
g71
NtRp741
(dp742
g74
(dp743
g101
g102
ssg83
g733
sg76
(lp744
S':'
asbag69
(g90
g71
NtRp745
(dp746
g74
(dp747
sg83
g733
sg76
(lp748
g69
(g70
g71
NtRp749
(dp750
g74
(dp751
g82
I3
ssg83
g745
sg76
(lp752
S''
asbasbasbag69
(g85
g71
NtRp753
(dp754
g74
(dp755
sg83
g649
sg76
(lp756
g69
(g90
g71
NtRp757
(dp758
g74
(dp759
g94
g95
ssg83
g753
sg76
(lp760
g388
asbag69
(g90
g71
NtRp761
(dp762
g74
(dp763
g101
g102
ssg83
g753
sg76
(lp764
S':'
asbag69
(g90
g71
NtRp765
(dp766
g74
(dp767
sg83
g753
sg76
(lp768
g69
(g70
g71
NtRp769
(dp770
g74
(dp771
g82
I3
ssg83
g765
sg76
(lp772
S''
asbasbasbag69
(g85
g71
NtRp773
(dp774
g74
(dp775
sg83
g649
sg76
(lp776
g69
(g90
g71
NtRp777
(dp778
g74
(dp779
g94
g95
ssg83
g773
sg76
(lp780
g409
asbag69
(g90
g71
NtRp781
(dp782
g74
(dp783
g101
g102
ssg83
g773
sg76
(lp784
S':'
asbag69
(g90
g71
NtRp785
(dp786
g74
(dp787
sg83
g773
sg76
(lp788
g69
(g70
g71
NtRp789
(dp790
g74
(dp791
g82
I3
ssg83
g785
sg76
(lp792
S''
asbasbasbag69
(g85
g71
NtRp793
(dp794
g74
(dp795
sg83
g649
sg76
(lp796
g69
(g90
g71
NtRp797
(dp798
g74
(dp799
g94
g95
ssg83
g793
sg76
(lp800
g430
asbag69
(g90
g71
NtRp801
(dp802
g74
(dp803
g101
g102
ssg83
g793
sg76
(lp804
S':'
asbag69
(g90
g71
NtRp805
(dp806
g74
(dp807
sg83
g793
sg76
(lp808
g69
(g70
g71
NtRp809
(dp810
g74
(dp811
g82
I3
ssg83
g805
sg76
(lp812
S''
asbasbasbasbasbasbasbasbasbasbasbag69
(g85
g71
NtRp813
(dp814
g74
(dp815
sg83
g79
sg76
(lp816
g69
(g90
g71
NtRp817
(dp818
g74
(dp819
g94
g95
ssg83
g813
sg76
(lp820
S'env'
p821
asbag69
(g90
g71
NtRp822
(dp823
g74
(dp824
g101
g102
ssg83
g813
sg76
(lp825
S':'
asbag69
(g90
g71
NtRp826
(dp827
g74
(dp828
sg83
g813
sg76
(lp829
g69
(g70
g71
NtRp830
(dp831
g74
(dp832
g82
I5
ssg83
g826
sg76
(lp833
g69
(g78
g71
NtRp834
(dp835
g74
(dp836
g82
I4
ssg83
Nsg76
(lp837
g69
(g85
g71
NtRp838
(dp839
g74
(dp840
sg83
g834
sg76
(lp841
g69
(g90
g71
NtRp842
(dp843
g74
(dp844
g94
g95
ssg83
g838
sg76
(lp845
S'app_folders'
p846
asbag69
(g90
g71
NtRp847
(dp848
g74
(dp849
g101
g102
ssg83
g838
sg76
(lp850
S':'
asbag69
(g90
g71
NtRp851
(dp852
g74
(dp853
sg83
g838
sg76
(lp854
g69
(g70
g71
NtRp855
(dp856
g74
(dp857
g82
I4
ssg83
g851
sg76
(lp858
S"set(['/home/mka/web2py/applications/examples/', '/home/mka/web2py/applications/myapp/', '/home/mka/web2py/applications/welcome/', '/home/mka/web2py/applications/admin/', '/home/mka/web2py/applications/kurssihallinta/'])"
p859
asbasbasbag69
(g85
g71
NtRp860
(dp861
g74
(dp862
sg83
g834
sg76
(lp863
g69
(g90
g71
NtRp864
(dp865
g74
(dp866
g94
g95
ssg83
g860
sg76
(lp867
S'applications_parent'
p868
asbag69
(g90
g71
NtRp869
(dp870
g74
(dp871
g101
g102
ssg83
g860
sg76
(lp872
S':'
asbag69
(g90
g71
NtRp873
(dp874
g74
(dp875
sg83
g860
sg76
(lp876
g69
(g70
g71
NtRp877
(dp878
g74
(dp879
g82
I4
ssg83
g873
sg76
(lp880
S'/home/mka/web2py'
p881
asbasbasbag69
(g85
g71
NtRp882
(dp883
g74
(dp884
sg83
g834
sg76
(lp885
g69
(g90
g71
NtRp886
(dp887
g74
(dp888
g94
g95
ssg83
g882
sg76
(lp889
S'cmd_args'
p890
asbag69
(g90
g71
NtRp891
(dp892
g74
(dp893
g101
g102
ssg83
g882
sg76
(lp894
S':'
asbag69
(g90
g71
NtRp895
(dp896
g74
(dp897
sg83
g882
sg76
(lp898
g69
(g70
g71
NtRp899
(dp900
g74
(dp901
g82
I4
ssg83
g895
sg76
(lp902
g69
(g78
g71
NtRp903
(dp904
g74
(dp905
g82
I3
ssg83
Nsg76
(lp906
sbasbasbasbag69
(g85
g71
NtRp907
(dp908
g74
(dp909
sg83
g834
sg76
(lp910
g69
(g90
g71
NtRp911
(dp912
g74
(dp913
g94
g95
ssg83
g907
sg76
(lp914
S'cmd_options'
p915
asbag69
(g90
g71
NtRp916
(dp917
g74
(dp918
g101
g102
ssg83
g907
sg76
(lp919
S':'
asbag69
(g90
g71
NtRp920
(dp921
g74
(dp922
sg83
g907
sg76
(lp923
g69
(g70
g71
NtRp924
(dp925
g74
(dp926
g82
I4
ssg83
g920
sg76
(lp927
S"<Values at 0x8feb86c: {'verbose': False, 'ip': '127.0.0.1', 'shutdown_timeout': 5, 'taskbar': False, 'port': 8000, 'maxthreads': None, 'softcron': False, 'server_name': 'mka3830TG', 'bpython': False, 'nogui': False, 'nocron': False, 'extcron': False, 'debuglevel': 30, 'test': None, 'folder': '/home/mka/web2py', 'config': '', 'import_models': False, 'winservice': '', 'shell': None, 'run': '', 'log_filename': 'httpserver.log', 'args': [''], 'socket_timeout': 1, 'profiler_filename': None, 'ssl_private_key': '', 'password': '<ask>', 'request_queue_size': 5, 'ssl_certificate': '', 'cronjob': False, 'plain': False, 'quiet': False, 'interfaces': None, 'minthreads': None, 'timeout': 10, 'numthreads': None, 'nobanner': False, 'pid_filename': 'httpserver.pid'}>"
p928
asbasbasbag69
(g85
g71
NtRp929
(dp930
g74
(dp931
sg83
g834
sg76
(lp932
g69
(g90
g71
NtRp933
(dp934
g74
(dp935
g94
g95
ssg83
g929
sg76
(lp936
S'db_sessions'
p937
asbag69
(g90
g71
NtRp938
(dp939
g74
(dp940
g101
g102
ssg83
g929
sg76
(lp941
S':'
asbag69
(g90
g71
NtRp942
(dp943
g74
(dp944
sg83
g929
sg76
(lp945
g69
(g70
g71
NtRp946
(dp947
g74
(dp948
g82
I4
ssg83
g942
sg76
(lp949
S'set([])'
p950
asbasbasbag69
(g85
g71
NtRp951
(dp952
g74
(dp953
sg83
g834
sg76
(lp954
g69
(g90
g71
NtRp955
(dp956
g74
(dp957
g94
g95
ssg83
g951
sg76
(lp958
S'debugging'
p959
asbag69
(g90
g71
NtRp960
(dp961
g74
(dp962
g101
g102
ssg83
g951
sg76
(lp963
S':'
asbag69
(g90
g71
NtRp964
(dp965
g74
(dp966
sg83
g951
sg76
(lp967
g69
(g70
g71
NtRp968
(dp969
g74
(dp970
g82
I4
ssg83
g964
sg76
(lp971
g112
asbasbasbag69
(g85
g71
NtRp972
(dp973
g74
(dp974
sg83
g834
sg76
(lp975
g69
(g90
g71
NtRp976
(dp977
g74
(dp978
g94
g95
ssg83
g972
sg76
(lp979
S'gluon_parent'
p980
asbag69
(g90
g71
NtRp981
(dp982
g74
(dp983
g101
g102
ssg83
g972
sg76
(lp984
S':'
asbag69
(g90
g71
NtRp985
(dp986
g74
(dp987
sg83
g972
sg76
(lp988
g69
(g70
g71
NtRp989
(dp990
g74
(dp991
g82
I4
ssg83
g985
sg76
(lp992
S'/usr/share/web2py'
p993
asbasbasbag69
(g85
g71
NtRp994
(dp995
g74
(dp996
sg83
g834
sg76
(lp997
g69
(g90
g71
NtRp998
(dp999
g74
(dp1000
g94
g95
ssg83
g994
sg76
(lp1001
S'http_accept'
p1002
asbag69
(g90
g71
NtRp1003
(dp1004
g74
(dp1005
g101
g102
ssg83
g994
sg76
(lp1006
S':'
asbag69
(g90
g71
NtRp1007
(dp1008
g74
(dp1009
sg83
g994
sg76
(lp1010
g69
(g70
g71
NtRp1011
(dp1012
g74
(dp1013
g82
I4
ssg83
g1007
sg76
(lp1014
S'text/html,application/xhtml+xml,application/xml;q=0.9,*/*;q=0.8'
p1015
asbasbasbag69
(g85
g71
NtRp1016
(dp1017
g74
(dp1018
sg83
g834
sg76
(lp1019
g69
(g90
g71
NtRp1020
(dp1021
g74
(dp1022
g94
g95
ssg83
g1016
sg76
(lp1023
S'http_accept_charset'
p1024
asbag69
(g90
g71
NtRp1025
(dp1026
g74
(dp1027
g101
g102
ssg83
g1016
sg76
(lp1028
S':'
asbag69
(g90
g71
NtRp1029
(dp1030
g74
(dp1031
sg83
g1016
sg76
(lp1032
g69
(g70
g71
NtRp1033
(dp1034
g74
(dp1035
g82
I4
ssg83
g1029
sg76
(lp1036
S'ISO-8859-1,utf-8;q=0.7,*;q=0.3'
p1037
asbasbasbag69
(g85
g71
NtRp1038
(dp1039
g74
(dp1040
sg83
g834
sg76
(lp1041
g69
(g90
g71
NtRp1042
(dp1043
g74
(dp1044
g94
g95
ssg83
g1038
sg76
(lp1045
S'http_accept_encoding'
p1046
asbag69
(g90
g71
NtRp1047
(dp1048
g74
(dp1049
g101
g102
ssg83
g1038
sg76
(lp1050
S':'
asbag69
(g90
g71
NtRp1051
(dp1052
g74
(dp1053
sg83
g1038
sg76
(lp1054
g69
(g70
g71
NtRp1055
(dp1056
g74
(dp1057
g82
I4
ssg83
g1051
sg76
(lp1058
S'gzip,deflate,sdch'
p1059
asbasbasbag69
(g85
g71
NtRp1060
(dp1061
g74
(dp1062
sg83
g834
sg76
(lp1063
g69
(g90
g71
NtRp1064
(dp1065
g74
(dp1066
g94
g95
ssg83
g1060
sg76
(lp1067
S'http_accept_language'
p1068
asbag69
(g90
g71
NtRp1069
(dp1070
g74
(dp1071
g101
g102
ssg83
g1060
sg76
(lp1072
S':'
asbag69
(g90
g71
NtRp1073
(dp1074
g74
(dp1075
sg83
g1060
sg76
(lp1076
g69
(g70
g71
NtRp1077
(dp1078
g74
(dp1079
g82
I4
ssg83
g1073
sg76
(lp1080
S'en-US,en;q=0.8'
p1081
asbasbasbag69
(g85
g71
NtRp1082
(dp1083
g74
(dp1084
sg83
g834
sg76
(lp1085
g69
(g90
g71
NtRp1086
(dp1087
g74
(dp1088
g94
g95
ssg83
g1082
sg76
(lp1089
S'http_cache_control'
p1090
asbag69
(g90
g71
NtRp1091
(dp1092
g74
(dp1093
g101
g102
ssg83
g1082
sg76
(lp1094
S':'
asbag69
(g90
g71
NtRp1095
(dp1096
g74
(dp1097
sg83
g1082
sg76
(lp1098
g69
(g70
g71
NtRp1099
(dp1100
g74
(dp1101
g82
I4
ssg83
g1095
sg76
(lp1102
S'max-age=0'
p1103
asbasbasbag69
(g85
g71
NtRp1104
(dp1105
g74
(dp1106
sg83
g834
sg76
(lp1107
g69
(g90
g71
NtRp1108
(dp1109
g74
(dp1110
g94
g95
ssg83
g1104
sg76
(lp1111
S'http_connection'
p1112
asbag69
(g90
g71
NtRp1113
(dp1114
g74
(dp1115
g101
g102
ssg83
g1104
sg76
(lp1116
S':'
asbag69
(g90
g71
NtRp1117
(dp1118
g74
(dp1119
sg83
g1104
sg76
(lp1120
g69
(g70
g71
NtRp1121
(dp1122
g74
(dp1123
g82
I4
ssg83
g1117
sg76
(lp1124
S'keep-alive'
p1125
asbasbasbag69
(g85
g71
NtRp1126
(dp1127
g74
(dp1128
sg83
g834
sg76
(lp1129
g69
(g90
g71
NtRp1130
(dp1131
g74
(dp1132
g94
g95
ssg83
g1126
sg76
(lp1133
S'http_cookie'
p1134
asbag69
(g90
g71
NtRp1135
(dp1136
g74
(dp1137
g101
g102
ssg83
g1126
sg76
(lp1138
S':'
asbag69
(g90
g71
NtRp1139
(dp1140
g74
(dp1141
sg83
g1126
sg76
(lp1142
g69
(g70
g71
NtRp1143
(dp1144
g74
(dp1145
g82
I4
ssg83
g1139
sg76
(lp1146
S'session_id_welcome=127.0.0.1-debd82a2-2d92-4d9f-a7af-aba1552b15c2; session_id_kurssihallinta=127.0.0.1-04007b50-a50e-4f99-8adc-6e576aa93981; session_id_admin=127.0.0.1-a5a35fd8-1736-48d3-b921-f9987563b609'
p1147
asbasbasbag69
(g85
g71
NtRp1148
(dp1149
g74
(dp1150
sg83
g834
sg76
(lp1151
g69
(g90
g71
NtRp1152
(dp1153
g74
(dp1154
g94
g95
ssg83
g1148
sg76
(lp1155
S'http_host'
p1156
asbag69
(g90
g71
NtRp1157
(dp1158
g74
(dp1159
g101
g102
ssg83
g1148
sg76
(lp1160
S':'
asbag69
(g90
g71
NtRp1161
(dp1162
g74
(dp1163
sg83
g1148
sg76
(lp1164
g69
(g70
g71
NtRp1165
(dp1166
g74
(dp1167
g82
I4
ssg83
g1161
sg76
(lp1168
S'127.0.0.1:8000'
p1169
asbasbasbag69
(g85
g71
NtRp1170
(dp1171
g74
(dp1172
sg83
g834
sg76
(lp1173
g69
(g90
g71
NtRp1174
(dp1175
g74
(dp1176
g94
g95
ssg83
g1170
sg76
(lp1177
S'http_referer'
p1178
asbag69
(g90
g71
NtRp1179
(dp1180
g74
(dp1181
g101
g102
ssg83
g1170
sg76
(lp1182
S':'
asbag69
(g90
g71
NtRp1183
(dp1184
g74
(dp1185
sg83
g1170
sg76
(lp1186
g69
(g70
g71
NtRp1187
(dp1188
g74
(dp1189
g82
I4
ssg83
g1183
sg76
(lp1190
S'http://127.0.0.1:8000/admin/default/site'
p1191
asbasbasbag69
(g85
g71
NtRp1192
(dp1193
g74
(dp1194
sg83
g834
sg76
(lp1195
g69
(g90
g71
NtRp1196
(dp1197
g74
(dp1198
g94
g95
ssg83
g1192
sg76
(lp1199
S'http_user_agent'
p1200
asbag69
(g90
g71
NtRp1201
(dp1202
g74
(dp1203
g101
g102
ssg83
g1192
sg76
(lp1204
S':'
asbag69
(g90
g71
NtRp1205
(dp1206
g74
(dp1207
sg83
g1192
sg76
(lp1208
g69
(g70
g71
NtRp1209
(dp1210
g74
(dp1211
g82
I4
ssg83
g1205
sg76
(lp1212
S'Mozilla/5.0 (X11; Linux i686) AppleWebKit/537.31 (KHTML, like Gecko) Chrome/26.0.1410.63 Safari/537.31'
p1213
asbasbasbag69
(g85
g71
NtRp1214
(dp1215
g74
(dp1216
sg83
g834
sg76
(lp1217
g69
(g90
g71
NtRp1218
(dp1219
g74
(dp1220
g94
g95
ssg83
g1214
sg76
(lp1221
S'is_jython'
p1222
asbag69
(g90
g71
NtRp1223
(dp1224
g74
(dp1225
g101
g102
ssg83
g1214
sg76
(lp1226
S':'
asbag69
(g90
g71
NtRp1227
(dp1228
g74
(dp1229
sg83
g1214
sg76
(lp1230
g69
(g70
g71
NtRp1231
(dp1232
g74
(dp1233
g82
I4
ssg83
g1227
sg76
(lp1234
g112
asbasbasbag69
(g85
g71
NtRp1235
(dp1236
g74
(dp1237
sg83
g834
sg76
(lp1238
g69
(g90
g71
NtRp1239
(dp1240
g74
(dp1241
g94
g95
ssg83
g1235
sg76
(lp1242
S'is_pypy'
p1243
asbag69
(g90
g71
NtRp1244
(dp1245
g74
(dp1246
g101
g102
ssg83
g1235
sg76
(lp1247
S':'
asbag69
(g90
g71
NtRp1248
(dp1249
g74
(dp1250
sg83
g1235
sg76
(lp1251
g69
(g70
g71
NtRp1252
(dp1253
g74
(dp1254
g82
I4
ssg83
g1248
sg76
(lp1255
g112
asbasbasbag69
(g85
g71
NtRp1256
(dp1257
g74
(dp1258
sg83
g834
sg76
(lp1259
g69
(g90
g71
NtRp1260
(dp1261
g74
(dp1262
g94
g95
ssg83
g1256
sg76
(lp1263
S'path_info'
p1264
asbag69
(g90
g71
NtRp1265
(dp1266
g74
(dp1267
g101
g102
ssg83
g1256
sg76
(lp1268
S':'
asbag69
(g90
g71
NtRp1269
(dp1270
g74
(dp1271
sg83
g1256
sg76
(lp1272
g69
(g70
g71
NtRp1273
(dp1274
g74
(dp1275
g82
I4
ssg83
g1269
sg76
(lp1276
S'/kurssihallinta/default/index'
p1277
asbasbasbag69
(g85
g71
NtRp1278
(dp1279
g74
(dp1280
sg83
g834
sg76
(lp1281
g69
(g90
g71
NtRp1282
(dp1283
g74
(dp1284
g94
g95
ssg83
g1278
sg76
(lp1285
S'query_string'
p1286
asbag69
(g90
g71
NtRp1287
(dp1288
g74
(dp1289
g101
g102
ssg83
g1278
sg76
(lp1290
S':'
asbag69
(g90
g71
NtRp1291
(dp1292
g74
(dp1293
sg83
g1278
sg76
(lp1294
g69
(g70
g71
NtRp1295
(dp1296
g74
(dp1297
g82
I4
ssg83
g1291
sg76
(lp1298
S''
asbasbasbag69
(g85
g71
NtRp1299
(dp1300
g74
(dp1301
sg83
g834
sg76
(lp1302
g69
(g90
g71
NtRp1303
(dp1304
g74
(dp1305
g94
g95
ssg83
g1299
sg76
(lp1306
S'remote_addr'
p1307
asbag69
(g90
g71
NtRp1308
(dp1309
g74
(dp1310
g101
g102
ssg83
g1299
sg76
(lp1311
S':'
asbag69
(g90
g71
NtRp1312
(dp1313
g74
(dp1314
sg83
g1299
sg76
(lp1315
g69
(g70
g71
NtRp1316
(dp1317
g74
(dp1318
g82
I4
ssg83
g1312
sg76
(lp1319
g202
asbasbasbag69
(g85
g71
NtRp1320
(dp1321
g74
(dp1322
sg83
g834
sg76
(lp1323
g69
(g90
g71
NtRp1324
(dp1325
g74
(dp1326
g94
g95
ssg83
g1320
sg76
(lp1327
S'remote_port'
p1328
asbag69
(g90
g71
NtRp1329
(dp1330
g74
(dp1331
g101
g102
ssg83
g1320
sg76
(lp1332
S':'
asbag69
(g90
g71
NtRp1333
(dp1334
g74
(dp1335
sg83
g1320
sg76
(lp1336
g69
(g70
g71
NtRp1337
(dp1338
g74
(dp1339
g82
I4
ssg83
g1333
sg76
(lp1340
S'49510'
p1341
asbasbasbag69
(g85
g71
NtRp1342
(dp1343
g74
(dp1344
sg83
g834
sg76
(lp1345
g69
(g90
g71
NtRp1346
(dp1347
g74
(dp1348
g94
g95
ssg83
g1342
sg76
(lp1349
S'request_method'
p1350
asbag69
(g90
g71
NtRp1351
(dp1352
g74
(dp1353
g101
g102
ssg83
g1342
sg76
(lp1354
S':'
asbag69
(g90
g71
NtRp1355
(dp1356
g74
(dp1357
sg83
g1342
sg76
(lp1358
g69
(g70
g71
NtRp1359
(dp1360
g74
(dp1361
g82
I4
ssg83
g1355
sg76
(lp1362
S'GET'
p1363
asbasbasbag69
(g85
g71
NtRp1364
(dp1365
g74
(dp1366
sg83
g834
sg76
(lp1367
g69
(g90
g71
NtRp1368
(dp1369
g74
(dp1370
g94
g95
ssg83
g1364
sg76
(lp1371
S'script_name'
p1372
asbag69
(g90
g71
NtRp1373
(dp1374
g74
(dp1375
g101
g102
ssg83
g1364
sg76
(lp1376
S':'
asbag69
(g90
g71
NtRp1377
(dp1378
g74
(dp1379
sg83
g1364
sg76
(lp1380
g69
(g70
g71
NtRp1381
(dp1382
g74
(dp1383
g82
I4
ssg83
g1377
sg76
(lp1384
S''
asbasbasbag69
(g85
g71
NtRp1385
(dp1386
g74
(dp1387
sg83
g834
sg76
(lp1388
g69
(g90
g71
NtRp1389
(dp1390
g74
(dp1391
g94
g95
ssg83
g1385
sg76
(lp1392
S'server_name'
p1393
asbag69
(g90
g71
NtRp1394
(dp1395
g74
(dp1396
g101
g102
ssg83
g1385
sg76
(lp1397
S':'
asbag69
(g90
g71
NtRp1398
(dp1399
g74
(dp1400
sg83
g1385
sg76
(lp1401
g69
(g70
g71
NtRp1402
(dp1403
g74
(dp1404
g82
I4
ssg83
g1398
sg76
(lp1405
S'mka3830TG'
p1406
asbasbasbag69
(g85
g71
NtRp1407
(dp1408
g74
(dp1409
sg83
g834
sg76
(lp1410
g69
(g90
g71
NtRp1411
(dp1412
g74
(dp1413
g94
g95
ssg83
g1407
sg76
(lp1414
S'server_port'
p1415
asbag69
(g90
g71
NtRp1416
(dp1417
g74
(dp1418
g101
g102
ssg83
g1407
sg76
(lp1419
S':'
asbag69
(g90
g71
NtRp1420
(dp1421
g74
(dp1422
sg83
g1407
sg76
(lp1423
g69
(g70
g71
NtRp1424
(dp1425
g74
(dp1426
g82
I4
ssg83
g1420
sg76
(lp1427
S'8000'
p1428
asbasbasbag69
(g85
g71
NtRp1429
(dp1430
g74
(dp1431
sg83
g834
sg76
(lp1432
g69
(g90
g71
NtRp1433
(dp1434
g74
(dp1435
g94
g95
ssg83
g1429
sg76
(lp1436
S'server_protocol'
p1437
asbag69
(g90
g71
NtRp1438
(dp1439
g74
(dp1440
g101
g102
ssg83
g1429
sg76
(lp1441
S':'
asbag69
(g90
g71
NtRp1442
(dp1443
g74
(dp1444
sg83
g1429
sg76
(lp1445
g69
(g70
g71
NtRp1446
(dp1447
g74
(dp1448
g82
I4
ssg83
g1442
sg76
(lp1449
S'HTTP/1.1'
p1450
asbasbasbag69
(g85
g71
NtRp1451
(dp1452
g74
(dp1453
sg83
g834
sg76
(lp1454
g69
(g90
g71
NtRp1455
(dp1456
g74
(dp1457
g94
g95
ssg83
g1451
sg76
(lp1458
S'server_software'
p1459
asbag69
(g90
g71
NtRp1460
(dp1461
g74
(dp1462
g101
g102
ssg83
g1451
sg76
(lp1463
S':'
asbag69
(g90
g71
NtRp1464
(dp1465
g74
(dp1466
sg83
g1451
sg76
(lp1467
g69
(g70
g71
NtRp1468
(dp1469
g74
(dp1470
g82
I4
ssg83
g1464
sg76
(lp1471
S'Rocket 1.2.4'
p1472
asbasbasbag69
(g85
g71
NtRp1473
(dp1474
g74
(dp1475
sg83
g834
sg76
(lp1476
g69
(g90
g71
NtRp1477
(dp1478
g74
(dp1479
g94
g95
ssg83
g1473
sg76
(lp1480
S'web2py_crontype'
p1481
asbag69
(g90
g71
NtRp1482
(dp1483
g74
(dp1484
g101
g102
ssg83
g1473
sg76
(lp1485
S':'
asbag69
(g90
g71
NtRp1486
(dp1487
g74
(dp1488
sg83
g1473
sg76
(lp1489
g69
(g70
g71
NtRp1490
(dp1491
g74
(dp1492
g82
I4
ssg83
g1486
sg76
(lp1493
S'hard'
p1494
asbasbasbag69
(g85
g71
NtRp1495
(dp1496
g74
(dp1497
sg83
g834
sg76
(lp1498
g69
(g90
g71
NtRp1499
(dp1500
g74
(dp1501
g94
g95
ssg83
g1495
sg76
(lp1502
S'web2py_path'
p1503
asbag69
(g90
g71
NtRp1504
(dp1505
g74
(dp1506
g101
g102
ssg83
g1495
sg76
(lp1507
S':'
asbag69
(g90
g71
NtRp1508
(dp1509
g74
(dp1510
sg83
g1495
sg76
(lp1511
g69
(g70
g71
NtRp1512
(dp1513
g74
(dp1514
g82
I4
ssg83
g1508
sg76
(lp1515
g881
asbasbasbag69
(g85
g71
NtRp1516
(dp1517
g74
(dp1518
sg83
g834
sg76
(lp1519
g69
(g90
g71
NtRp1520
(dp1521
g74
(dp1522
g94
g95
ssg83
g1516
sg76
(lp1523
S'web2py_version'
p1524
asbag69
(g90
g71
NtRp1525
(dp1526
g74
(dp1527
g101
g102
ssg83
g1516
sg76
(lp1528
S':'
asbag69
(g90
g71
NtRp1529
(dp1530
g74
(dp1531
sg83
g1516
sg76
(lp1532
g69
(g70
g71
NtRp1533
(dp1534
g74
(dp1535
g82
I4
ssg83
g1529
sg76
(lp1536
g69
(g78
g71
NtRp1537
(dp1538
g74
(dp1539
g82
I3
ssg83
Nsg76
(lp1540
g69
(g85
g71
NtRp1541
(dp1542
g74
(dp1543
sg83
g1537
sg76
(lp1544
g69
(g90
g71
NtRp1545
(dp1546
g74
(dp1547
sg83
g1541
sg76
(lp1548
g69
(g70
g71
NtRp1549
(dp1550
g74
(dp1551
g82
I3
ssg83
g1545
sg76
(lp1552
S'1'
asbasbasbag69
(g85
g71
NtRp1553
(dp1554
g74
(dp1555
sg83
g1537
sg76
(lp1556
g69
(g90
g71
NtRp1557
(dp1558
g74
(dp1559
sg83
g1553
sg76
(lp1560
g69
(g70
g71
NtRp1561
(dp1562
g74
(dp1563
g82
I3
ssg83
g1557
sg76
(lp1564
S'99'
p1565
asbasbasbag69
(g85
g71
NtRp1566
(dp1567
g74
(dp1568
sg83
g1537
sg76
(lp1569
g69
(g90
g71
NtRp1570
(dp1571
g74
(dp1572
sg83
g1566
sg76
(lp1573
g69
(g70
g71
NtRp1574
(dp1575
g74
(dp1576
g82
I3
ssg83
g1570
sg76
(lp1577
S'4'
asbasbasbag69
(g85
g71
NtRp1578
(dp1579
g74
(dp1580
sg83
g1537
sg76
(lp1581
g69
(g90
g71
NtRp1582
(dp1583
g74
(dp1584
sg83
g1578
sg76
(lp1585
g69
(g70
g71
NtRp1586
(dp1587
g74
(dp1588
g82
I3
ssg83
g1582
sg76
(lp1589
S'datetime.datetime(2011, 12, 14, 14, 46, 14)'
p1590
asbasbasbag69
(g85
g71
NtRp1591
(dp1592
g74
(dp1593
sg83
g1537
sg76
(lp1594
g69
(g90
g71
NtRp1595
(dp1596
g74
(dp1597
sg83
g1591
sg76
(lp1598
g69
(g70
g71
NtRp1599
(dp1600
g74
(dp1601
g82
I3
ssg83
g1595
sg76
(lp1602
S'stable'
p1603
asbasbasbasbasbasbasbag69
(g85
g71
NtRp1604
(dp1605
g74
(dp1606
sg83
g834
sg76
(lp1607
g69
(g90
g71
NtRp1608
(dp1609
g74
(dp1610
g94
g95
ssg83
g1604
sg76
(lp1611
S'wsgi_errors'
p1612
asbag69
(g90
g71
NtRp1613
(dp1614
g74
(dp1615
g101
g102
ssg83
g1604
sg76
(lp1616
S':'
asbag69
(g90
g71
NtRp1617
(dp1618
g74
(dp1619
sg83
g1604
sg76
(lp1620
g69
(g70
g71
NtRp1621
(dp1622
g74
(dp1623
g82
I4
ssg83
g1617
sg76
(lp1624
S"<open file '<stderr>', mode 'w' at 0xb72ca0d0>"
p1625
asbasbasbag69
(g85
g71
NtRp1626
(dp1627
g74
(dp1628
sg83
g834
sg76
(lp1629
g69
(g90
g71
NtRp1630
(dp1631
g74
(dp1632
g94
g95
ssg83
g1626
sg76
(lp1633
S'wsgi_file_wrapper'
p1634
asbag69
(g90
g71
NtRp1635
(dp1636
g74
(dp1637
g101
g102
ssg83
g1626
sg76
(lp1638
S':'
asbag69
(g90
g71
NtRp1639
(dp1640
g74
(dp1641
sg83
g1626
sg76
(lp1642
g69
(g70
g71
NtRp1643
(dp1644
g74
(dp1645
g82
I4
ssg83
g1639
sg76
(lp1646
S'<class wsgiref.util.FileWrapper at 0x8db505c>'
p1647
asbasbasbag69
(g85
g71
NtRp1648
(dp1649
g74
(dp1650
sg83
g834
sg76
(lp1651
g69
(g90
g71
NtRp1652
(dp1653
g74
(dp1654
g94
g95
ssg83
g1648
sg76
(lp1655
S'wsgi_input'
p1656
asbag69
(g90
g71
NtRp1657
(dp1658
g74
(dp1659
g101
g102
ssg83
g1648
sg76
(lp1660
S':'
asbag69
(g90
g71
NtRp1661
(dp1662
g74
(dp1663
sg83
g1648
sg76
(lp1664
g69
(g70
g71
NtRp1665
(dp1666
g74
(dp1667
g82
I4
ssg83
g1661
sg76
(lp1668
S'<socket._fileobject object at 0xb18a416c>'
p1669
asbasbasbag69
(g85
g71
NtRp1670
(dp1671
g74
(dp1672
sg83
g834
sg76
(lp1673
g69
(g90
g71
NtRp1674
(dp1675
g74
(dp1676
g94
g95
ssg83
g1670
sg76
(lp1677
S'wsgi_multiprocess'
p1678
asbag69
(g90
g71
NtRp1679
(dp1680
g74
(dp1681
g101
g102
ssg83
g1670
sg76
(lp1682
S':'
asbag69
(g90
g71
NtRp1683
(dp1684
g74
(dp1685
sg83
g1670
sg76
(lp1686
g69
(g70
g71
NtRp1687
(dp1688
g74
(dp1689
g82
I4
ssg83
g1683
sg76
(lp1690
g112
asbasbasbag69
(g85
g71
NtRp1691
(dp1692
g74
(dp1693
sg83
g834
sg76
(lp1694
g69
(g90
g71
NtRp1695
(dp1696
g74
(dp1697
g94
g95
ssg83
g1691
sg76
(lp1698
S'wsgi_multithread'
p1699
asbag69
(g90
g71
NtRp1700
(dp1701
g74
(dp1702
g101
g102
ssg83
g1691
sg76
(lp1703
S':'
asbag69
(g90
g71
NtRp1704
(dp1705
g74
(dp1706
sg83
g1691
sg76
(lp1707
g69
(g70
g71
NtRp1708
(dp1709
g74
(dp1710
g82
I4
ssg83
g1704
sg76
(lp1711
S'True'
p1712
asbasbasbag69
(g85
g71
NtRp1713
(dp1714
g74
(dp1715
sg83
g834
sg76
(lp1716
g69
(g90
g71
NtRp1717
(dp1718
g74
(dp1719
g94
g95
ssg83
g1713
sg76
(lp1720
S'wsgi_run_once'
p1721
asbag69
(g90
g71
NtRp1722
(dp1723
g74
(dp1724
g101
g102
ssg83
g1713
sg76
(lp1725
S':'
asbag69
(g90
g71
NtRp1726
(dp1727
g74
(dp1728
sg83
g1713
sg76
(lp1729
g69
(g70
g71
NtRp1730
(dp1731
g74
(dp1732
g82
I4
ssg83
g1726
sg76
(lp1733
g112
asbasbasbag69
(g85
g71
NtRp1734
(dp1735
g74
(dp1736
sg83
g834
sg76
(lp1737
g69
(g90
g71
NtRp1738
(dp1739
g74
(dp1740
g94
g95
ssg83
g1734
sg76
(lp1741
S'wsgi_url_scheme'
p1742
asbag69
(g90
g71
NtRp1743
(dp1744
g74
(dp1745
g101
g102
ssg83
g1734
sg76
(lp1746
S':'
asbag69
(g90
g71
NtRp1747
(dp1748
g74
(dp1749
sg83
g1734
sg76
(lp1750
g69
(g70
g71
NtRp1751
(dp1752
g74
(dp1753
g82
I4
ssg83
g1747
sg76
(lp1754
S'http'
p1755
asbasbasbag69
(g85
g71
NtRp1756
(dp1757
g74
(dp1758
sg83
g834
sg76
(lp1759
g69
(g90
g71
NtRp1760
(dp1761
g74
(dp1762
g94
g95
ssg83
g1756
sg76
(lp1763
S'wsgi_version'
p1764
asbag69
(g90
g71
NtRp1765
(dp1766
g74
(dp1767
g101
g102
ssg83
g1756
sg76
(lp1768
S':'
asbag69
(g90
g71
NtRp1769
(dp1770
g74
(dp1771
sg83
g1756
sg76
(lp1772
g69
(g70
g71
NtRp1773
(dp1774
g74
(dp1775
g82
I4
ssg83
g1769
sg76
(lp1776
g69
(g78
g71
NtRp1777
(dp1778
g74
(dp1779
g82
I3
ssg83
Nsg76
(lp1780
g69
(g85
g71
NtRp1781
(dp1782
g74
(dp1783
sg83
g1777
sg76
(lp1784
g69
(g90
g71
NtRp1785
(dp1786
g74
(dp1787
sg83
g1781
sg76
(lp1788
g69
(g70
g71
NtRp1789
(dp1790
g74
(dp1791
g82
I3
ssg83
g1785
sg76
(lp1792
S'1'
asbasbasbag69
(g85
g71
NtRp1793
(dp1794
g74
(dp1795
sg83
g1777
sg76
(lp1796
g69
(g90
g71
NtRp1797
(dp1798
g74
(dp1799
sg83
g1793
sg76
(lp1800
g69
(g70
g71
NtRp1801
(dp1802
g74
(dp1803
g82
I3
ssg83
g1797
sg76
(lp1804
S'0'
asbasbasbasbasbasbasbasbasbasbasbag69
(g85
g71
NtRp1805
(dp1806
g74
(dp1807
sg83
g79
sg76
(lp1808
g69
(g90
g71
NtRp1809
(dp1810
g74
(dp1811
g94
g95
ssg83
g1805
sg76
(lp1812
S'extension'
p1813
asbag69
(g90
g71
NtRp1814
(dp1815
g74
(dp1816
g101
g102
ssg83
g1805
sg76
(lp1817
S':'
asbag69
(g90
g71
NtRp1818
(dp1819
g74
(dp1820
sg83
g1805
sg76
(lp1821
g69
(g70
g71
NtRp1822
(dp1823
g74
(dp1824
g82
I5
ssg83
g1818
sg76
(lp1825
S'html'
p1826
asbasbasbag69
(g85
g71
NtRp1827
(dp1828
g74
(dp1829
sg83
g79
sg76
(lp1830
g69
(g90
g71
NtRp1831
(dp1832
g74
(dp1833
g94
g95
ssg83
g1827
sg76
(lp1834
S'folder'
p1835
asbag69
(g90
g71
NtRp1836
(dp1837
g74
(dp1838
g101
g102
ssg83
g1827
sg76
(lp1839
S':'
asbag69
(g90
g71
NtRp1840
(dp1841
g74
(dp1842
sg83
g1827
sg76
(lp1843
g69
(g70
g71
NtRp1844
(dp1845
g74
(dp1846
g82
I5
ssg83
g1840
sg76
(lp1847
S'/home/mka/web2py/applications/kurssihallinta/'
p1848
asbasbasbag69
(g85
g71
NtRp1849
(dp1850
g74
(dp1851
sg83
g79
sg76
(lp1852
g69
(g90
g71
NtRp1853
(dp1854
g74
(dp1855
g94
g95
ssg83
g1849
sg76
(lp1856
S'function'
p1857
asbag69
(g90
g71
NtRp1858
(dp1859
g74
(dp1860
g101
g102
ssg83
g1849
sg76
(lp1861
S':'
asbag69
(g90
g71
NtRp1862
(dp1863
g74
(dp1864
sg83
g1849
sg76
(lp1865
g69
(g70
g71
NtRp1866
(dp1867
g74
(dp1868
g82
I5
ssg83
g1862
sg76
(lp1869
S'index'
p1870
asbasbasbag69
(g85
g71
NtRp1871
(dp1872
g74
(dp1873
sg83
g79
sg76
(lp1874
g69
(g90
g71
NtRp1875
(dp1876
g74
(dp1877
g94
g95
ssg83
g1871
sg76
(lp1878
S'get_vars'
p1879
asbag69
(g90
g71
NtRp1880
(dp1881
g74
(dp1882
g101
g102
ssg83
g1871
sg76
(lp1883
S':'
asbag69
(g90
g71
NtRp1884
(dp1885
g74
(dp1886
sg83
g1871
sg76
(lp1887
g69
(g70
g71
NtRp1888
(dp1889
g74
(dp1890
g82
I5
ssg83
g1884
sg76
(lp1891
g69
(g78
g71
NtRp1892
(dp1893
g74
(dp1894
g82
I4
ssg83
Nsg76
(lp1895
sbasbasbasbag69
(g85
g71
NtRp1896
(dp1897
g74
(dp1898
sg83
g79
sg76
(lp1899
g69
(g90
g71
NtRp1900
(dp1901
g74
(dp1902
g94
g95
ssg83
g1896
sg76
(lp1903
S'global_settings'
p1904
asbag69
(g90
g71
NtRp1905
(dp1906
g74
(dp1907
g101
g102
ssg83
g1896
sg76
(lp1908
S':'
asbag69
(g90
g71
NtRp1909
(dp1910
g74
(dp1911
sg83
g1896
sg76
(lp1912
g69
(g70
g71
NtRp1913
(dp1914
g74
(dp1915
g82
I5
ssg83
g1909
sg76
(lp1916
g69
(g78
g71
NtRp1917
(dp1918
g74
(dp1919
g82
I4
ssg83
Nsg76
(lp1920
g69
(g85
g71
NtRp1921
(dp1922
g74
(dp1923
sg83
g1917
sg76
(lp1924
g69
(g90
g71
NtRp1925
(dp1926
g74
(dp1927
g94
g95
ssg83
g1921
sg76
(lp1928
g846
asbag69
(g90
g71
NtRp1929
(dp1930
g74
(dp1931
g101
g102
ssg83
g1921
sg76
(lp1932
S':'
asbag69
(g90
g71
NtRp1933
(dp1934
g74
(dp1935
sg83
g1921
sg76
(lp1936
g69
(g70
g71
NtRp1937
(dp1938
g74
(dp1939
g82
I4
ssg83
g1933
sg76
(lp1940
S"set(['/home/mka/web2py/applications/examples/', '/home/mka/web2py/applications/myapp/', '/home/mka/web2py/applications/welcome/', '/home/mka/web2py/applications/admin/', '/home/mka/web2py/applications/kurssihallinta/'])"
p1941
asbasbasbag69
(g85
g71
NtRp1942
(dp1943
g74
(dp1944
sg83
g1917
sg76
(lp1945
g69
(g90
g71
NtRp1946
(dp1947
g74
(dp1948
g94
g95
ssg83
g1942
sg76
(lp1949
g868
asbag69
(g90
g71
NtRp1950
(dp1951
g74
(dp1952
g101
g102
ssg83
g1942
sg76
(lp1953
S':'
asbag69
(g90
g71
NtRp1954
(dp1955
g74
(dp1956
sg83
g1942
sg76
(lp1957
g69
(g70
g71
NtRp1958
(dp1959
g74
(dp1960
g82
I4
ssg83
g1954
sg76
(lp1961
g881
asbasbasbag69
(g85
g71
NtRp1962
(dp1963
g74
(dp1964
sg83
g1917
sg76
(lp1965
g69
(g90
g71
NtRp1966
(dp1967
g74
(dp1968
g94
g95
ssg83
g1962
sg76
(lp1969
g890
asbag69
(g90
g71
NtRp1970
(dp1971
g74
(dp1972
g101
g102
ssg83
g1962
sg76
(lp1973
S':'
asbag69
(g90
g71
NtRp1974
(dp1975
g74
(dp1976
sg83
g1962
sg76
(lp1977
g69
(g70
g71
NtRp1978
(dp1979
g74
(dp1980
g82
I4
ssg83
g1974
sg76
(lp1981
g69
(g78
g71
NtRp1982
(dp1983
g74
(dp1984
g82
I3
ssg83
Nsg76
(lp1985
sbasbasbasbag69
(g85
g71
NtRp1986
(dp1987
g74
(dp1988
sg83
g1917
sg76
(lp1989
g69
(g90
g71
NtRp1990
(dp1991
g74
(dp1992
g94
g95
ssg83
g1986
sg76
(lp1993
g915
asbag69
(g90
g71
NtRp1994
(dp1995
g74
(dp1996
g101
g102
ssg83
g1986
sg76
(lp1997
S':'
asbag69
(g90
g71
NtRp1998
(dp1999
g74
(dp2000
sg83
g1986
sg76
(lp2001
g69
(g70
g71
NtRp2002
(dp2003
g74
(dp2004
g82
I4
ssg83
g1998
sg76
(lp2005
S"<Values at 0x8feb86c: {'verbose': False, 'ip': '127.0.0.1', 'shutdown_timeout': 5, 'taskbar': False, 'port': 8000, 'maxthreads': None, 'softcron': False, 'server_name': 'mka3830TG', 'bpython': False, 'nogui': False, 'nocron': False, 'extcron': False, 'debuglevel': 30, 'test': None, 'folder': '/home/mka/web2py', 'config': '', 'import_models': False, 'winservice': '', 'shell': None, 'run': '', 'log_filename': 'httpserver.log', 'args': [''], 'socket_timeout': 1, 'profiler_filename': None, 'ssl_private_key': '', 'password': '<ask>', 'request_queue_size': 5, 'ssl_certificate': '', 'cronjob': False, 'plain': False, 'quiet': False, 'interfaces': None, 'minthreads': None, 'timeout': 10, 'numthreads': None, 'nobanner': False, 'pid_filename': 'httpserver.pid'}>"
p2006
asbasbasbag69
(g85
g71
NtRp2007
(dp2008
g74
(dp2009
sg83
g1917
sg76
(lp2010
g69
(g90
g71
NtRp2011
(dp2012
g74
(dp2013
g94
g95
ssg83
g2007
sg76
(lp2014
g937
asbag69
(g90
g71
NtRp2015
(dp2016
g74
(dp2017
g101
g102
ssg83
g2007
sg76
(lp2018
S':'
asbag69
(g90
g71
NtRp2019
(dp2020
g74
(dp2021
sg83
g2007
sg76
(lp2022
g69
(g70
g71
NtRp2023
(dp2024
g74
(dp2025
g82
I4
ssg83
g2019
sg76
(lp2026
S'set([])'
p2027
asbasbasbag69
(g85
g71
NtRp2028
(dp2029
g74
(dp2030
sg83
g1917
sg76
(lp2031
g69
(g90
g71
NtRp2032
(dp2033
g74
(dp2034
g94
g95
ssg83
g2028
sg76
(lp2035
g959
asbag69
(g90
g71
NtRp2036
(dp2037
g74
(dp2038
g101
g102
ssg83
g2028
sg76
(lp2039
S':'
asbag69
(g90
g71
NtRp2040
(dp2041
g74
(dp2042
sg83
g2028
sg76
(lp2043
g69
(g70
g71
NtRp2044
(dp2045
g74
(dp2046
g82
I4
ssg83
g2040
sg76
(lp2047
g112
asbasbasbag69
(g85
g71
NtRp2048
(dp2049
g74
(dp2050
sg83
g1917
sg76
(lp2051
g69
(g90
g71
NtRp2052
(dp2053
g74
(dp2054
g94
g95
ssg83
g2048
sg76
(lp2055
g980
asbag69
(g90
g71
NtRp2056
(dp2057
g74
(dp2058
g101
g102
ssg83
g2048
sg76
(lp2059
S':'
asbag69
(g90
g71
NtRp2060
(dp2061
g74
(dp2062
sg83
g2048
sg76
(lp2063
g69
(g70
g71
NtRp2064
(dp2065
g74
(dp2066
g82
I4
ssg83
g2060
sg76
(lp2067
g993
asbasbasbag69
(g85
g71
NtRp2068
(dp2069
g74
(dp2070
sg83
g1917
sg76
(lp2071
g69
(g90
g71
NtRp2072
(dp2073
g74
(dp2074
g94
g95
ssg83
g2068
sg76
(lp2075
g1222
asbag69
(g90
g71
NtRp2076
(dp2077
g74
(dp2078
g101
g102
ssg83
g2068
sg76
(lp2079
S':'
asbag69
(g90
g71
NtRp2080
(dp2081
g74
(dp2082
sg83
g2068
sg76
(lp2083
g69
(g70
g71
NtRp2084
(dp2085
g74
(dp2086
g82
I4
ssg83
g2080
sg76
(lp2087
g112
asbasbasbag69
(g85
g71
NtRp2088
(dp2089
g74
(dp2090
sg83
g1917
sg76
(lp2091
g69
(g90
g71
NtRp2092
(dp2093
g74
(dp2094
g94
g95
ssg83
g2088
sg76
(lp2095
g1243
asbag69
(g90
g71
NtRp2096
(dp2097
g74
(dp2098
g101
g102
ssg83
g2088
sg76
(lp2099
S':'
asbag69
(g90
g71
NtRp2100
(dp2101
g74
(dp2102
sg83
g2088
sg76
(lp2103
g69
(g70
g71
NtRp2104
(dp2105
g74
(dp2106
g82
I4
ssg83
g2100
sg76
(lp2107
g112
asbasbasbag69
(g85
g71
NtRp2108
(dp2109
g74
(dp2110
sg83
g1917
sg76
(lp2111
g69
(g90
g71
NtRp2112
(dp2113
g74
(dp2114
g94
g95
ssg83
g2108
sg76
(lp2115
g1481
asbag69
(g90
g71
NtRp2116
(dp2117
g74
(dp2118
g101
g102
ssg83
g2108
sg76
(lp2119
S':'
asbag69
(g90
g71
NtRp2120
(dp2121
g74
(dp2122
sg83
g2108
sg76
(lp2123
g69
(g70
g71
NtRp2124
(dp2125
g74
(dp2126
g82
I4
ssg83
g2120
sg76
(lp2127
g1494
asbasbasbag69
(g85
g71
NtRp2128
(dp2129
g74
(dp2130
sg83
g1917
sg76
(lp2131
g69
(g90
g71
NtRp2132
(dp2133
g74
(dp2134
g94
g95
ssg83
g2128
sg76
(lp2135
g1524
asbag69
(g90
g71
NtRp2136
(dp2137
g74
(dp2138
g101
g102
ssg83
g2128
sg76
(lp2139
S':'
asbag69
(g90
g71
NtRp2140
(dp2141
g74
(dp2142
sg83
g2128
sg76
(lp2143
g69
(g70
g71
NtRp2144
(dp2145
g74
(dp2146
g82
I4
ssg83
g2140
sg76
(lp2147
g69
(g78
g71
NtRp2148
(dp2149
g74
(dp2150
g82
I3
ssg83
Nsg76
(lp2151
g69
(g85
g71
NtRp2152
(dp2153
g74
(dp2154
sg83
g2148
sg76
(lp2155
g69
(g90
g71
NtRp2156
(dp2157
g74
(dp2158
sg83
g2152
sg76
(lp2159
g69
(g70
g71
NtRp2160
(dp2161
g74
(dp2162
g82
I3
ssg83
g2156
sg76
(lp2163
S'1'
asbasbasbag69
(g85
g71
NtRp2164
(dp2165
g74
(dp2166
sg83
g2148
sg76
(lp2167
g69
(g90
g71
NtRp2168
(dp2169
g74
(dp2170
sg83
g2164
sg76
(lp2171
g69
(g70
g71
NtRp2172
(dp2173
g74
(dp2174
g82
I3
ssg83
g2168
sg76
(lp2175
S'99'
p2176
asbasbasbag69
(g85
g71
NtRp2177
(dp2178
g74
(dp2179
sg83
g2148
sg76
(lp2180
g69
(g90
g71
NtRp2181
(dp2182
g74
(dp2183
sg83
g2177
sg76
(lp2184
g69
(g70
g71
NtRp2185
(dp2186
g74
(dp2187
g82
I3
ssg83
g2181
sg76
(lp2188
S'4'
asbasbasbag69
(g85
g71
NtRp2189
(dp2190
g74
(dp2191
sg83
g2148
sg76
(lp2192
g69
(g90
g71
NtRp2193
(dp2194
g74
(dp2195
sg83
g2189
sg76
(lp2196
g69
(g70
g71
NtRp2197
(dp2198
g74
(dp2199
g82
I3
ssg83
g2193
sg76
(lp2200
S'datetime.datetime(2011, 12, 14, 14, 46, 14)'
p2201
asbasbasbag69
(g85
g71
NtRp2202
(dp2203
g74
(dp2204
sg83
g2148
sg76
(lp2205
g69
(g90
g71
NtRp2206
(dp2207
g74
(dp2208
sg83
g2202
sg76
(lp2209
g69
(g70
g71
NtRp2210
(dp2211
g74
(dp2212
g82
I3
ssg83
g2206
sg76
(lp2213
g1603
asbasbasbasbasbasbasbasbasbasbasbag69
(g85
g71
NtRp2214
(dp2215
g74
(dp2216
sg83
g79
sg76
(lp2217
g69
(g90
g71
NtRp2218
(dp2219
g74
(dp2220
g94
g95
ssg83
g2214
sg76
(lp2221
S'is_https'
p2222
asbag69
(g90
g71
NtRp2223
(dp2224
g74
(dp2225
g101
g102
ssg83
g2214
sg76
(lp2226
S':'
asbag69
(g90
g71
NtRp2227
(dp2228
g74
(dp2229
sg83
g2214
sg76
(lp2230
g69
(g70
g71
NtRp2231
(dp2232
g74
(dp2233
g82
I5
ssg83
g2227
sg76
(lp2234
g112
asbasbasbag69
(g85
g71
NtRp2235
(dp2236
g74
(dp2237
sg83
g79
sg76
(lp2238
g69
(g90
g71
NtRp2239
(dp2240
g74
(dp2241
g94
g95
ssg83
g2235
sg76
(lp2242
S'is_local'
p2243
asbag69
(g90
g71
NtRp2244
(dp2245
g74
(dp2246
g101
g102
ssg83
g2235
sg76
(lp2247
S':'
asbag69
(g90
g71
NtRp2248
(dp2249
g74
(dp2250
sg83
g2235
sg76
(lp2251
g69
(g70
g71
NtRp2252
(dp2253
g74
(dp2254
g82
I5
ssg83
g2248
sg76
(lp2255
g1712
asbasbasbag69
(g85
g71
NtRp2256
(dp2257
g74
(dp2258
sg83
g79
sg76
(lp2259
g69
(g90
g71
NtRp2260
(dp2261
g74
(dp2262
g94
g95
ssg83
g2256
sg76
(lp2263
S'is_restful'
p2264
asbag69
(g90
g71
NtRp2265
(dp2266
g74
(dp2267
g101
g102
ssg83
g2256
sg76
(lp2268
S':'
asbag69
(g90
g71
NtRp2269
(dp2270
g74
(dp2271
sg83
g2256
sg76
(lp2272
g69
(g70
g71
NtRp2273
(dp2274
g74
(dp2275
g82
I5
ssg83
g2269
sg76
(lp2276
g112
asbasbasbag69
(g85
g71
NtRp2277
(dp2278
g74
(dp2279
sg83
g79
sg76
(lp2280
g69
(g90
g71
NtRp2281
(dp2282
g74
(dp2283
g94
g95
ssg83
g2277
sg76
(lp2284
S'now'
p2285
asbag69
(g90
g71
NtRp2286
(dp2287
g74
(dp2288
g101
g102
ssg83
g2277
sg76
(lp2289
S':'
asbag69
(g90
g71
NtRp2290
(dp2291
g74
(dp2292
sg83
g2277
sg76
(lp2293
g69
(g70
g71
NtRp2294
(dp2295
g74
(dp2296
g82
I5
ssg83
g2290
sg76
(lp2297
S'datetime.datetime(2014, 5, 24, 10, 35, 56, 894119)'
p2298
asbasbasbag69
(g85
g71
NtRp2299
(dp2300
g74
(dp2301
sg83
g79
sg76
(lp2302
g69
(g90
g71
NtRp2303
(dp2304
g74
(dp2305
g94
g95
ssg83
g2299
sg76
(lp2306
S'post_vars'
p2307
asbag69
(g90
g71
NtRp2308
(dp2309
g74
(dp2310
g101
g102
ssg83
g2299
sg76
(lp2311
S':'
asbag69
(g90
g71
NtRp2312
(dp2313
g74
(dp2314
sg83
g2299
sg76
(lp2315
g69
(g70
g71
NtRp2316
(dp2317
g74
(dp2318
g82
I5
ssg83
g2312
sg76
(lp2319
g69
(g78
g71
NtRp2320
(dp2321
g74
(dp2322
g82
I4
ssg83
Nsg76
(lp2323
sbasbasbasbag69
(g85
g71
NtRp2324
(dp2325
g74
(dp2326
sg83
g79
sg76
(lp2327
g69
(g90
g71
NtRp2328
(dp2329
g74
(dp2330
g94
g95
ssg83
g2324
sg76
(lp2331
S'url'
p2332
asbag69
(g90
g71
NtRp2333
(dp2334
g74
(dp2335
g101
g102
ssg83
g2324
sg76
(lp2336
S':'
asbag69
(g90
g71
NtRp2337
(dp2338
g74
(dp2339
sg83
g2324
sg76
(lp2340
g69
(g70
g71
NtRp2341
(dp2342
g74
(dp2343
g82
I5
ssg83
g2337
sg76
(lp2344
S'/kurssihallinta/default/index'
p2345
asbasbasbag69
(g85
g71
NtRp2346
(dp2347
g74
(dp2348
sg83
g79
sg76
(lp2349
g69
(g90
g71
NtRp2350
(dp2351
g74
(dp2352
g94
g95
ssg83
g2346
sg76
(lp2353
S'utcnow'
p2354
asbag69
(g90
g71
NtRp2355
(dp2356
g74
(dp2357
g101
g102
ssg83
g2346
sg76
(lp2358
S':'
asbag69
(g90
g71
NtRp2359
(dp2360
g74
(dp2361
sg83
g2346
sg76
(lp2362
g69
(g70
g71
NtRp2363
(dp2364
g74
(dp2365
g82
I5
ssg83
g2359
sg76
(lp2366
S'datetime.datetime(2014, 5, 24, 7, 35, 56, 894137)'
p2367
asbasbasbag69
(g85
g71
NtRp2368
(dp2369
g74
(dp2370
sg83
g79
sg76
(lp2371
g69
(g90
g71
NtRp2372
(dp2373
g74
(dp2374
g94
g95
ssg83
g2368
sg76
(lp2375
S'uuid'
p2376
asbag69
(g90
g71
NtRp2377
(dp2378
g74
(dp2379
g101
g102
ssg83
g2368
sg76
(lp2380
S':'
asbag69
(g90
g71
NtRp2381
(dp2382
g74
(dp2383
sg83
g2368
sg76
(lp2384
g69
(g70
g71
NtRp2385
(dp2386
g74
(dp2387
g82
I5
ssg83
g2381
sg76
(lp2388
S'kurssihallinta/127.0.0.1.2014-05-24.10-35-56.eac27a22-72fa-4e93-ba4f-6625092edaaf'
p2389
asbasbasbag69
(g85
g71
NtRp2390
(dp2391
g74
(dp2392
sg83
g79
sg76
(lp2393
g69
(g90
g71
NtRp2394
(dp2395
g74
(dp2396
g94
g95
ssg83
g2390
sg76
(lp2397
S'vars'
p2398
asbag69
(g90
g71
NtRp2399
(dp2400
g74
(dp2401
g101
g102
ssg83
g2390
sg76
(lp2402
S':'
asbag69
(g90
g71
NtRp2403
(dp2404
g74
(dp2405
sg83
g2390
sg76
(lp2406
g69
(g70
g71
NtRp2407
(dp2408
g74
(dp2409
g82
I5
ssg83
g2403
sg76
(lp2410
g69
(g78
g71
NtRp2411
(dp2412
g74
(dp2413
g82
I4
ssg83
Nsg76
(lp2414
sbasbasbasbag69
(g85
g71
NtRp2415
(dp2416
g74
(dp2417
sg83
g79
sg76
(lp2418
g69
(g90
g71
NtRp2419
(dp2420
g74
(dp2421
g94
g95
ssg83
g2415
sg76
(lp2422
S'wsgi'
p2423
asbag69
(g90
g71
NtRp2424
(dp2425
g74
(dp2426
g101
g102
ssg83
g2415
sg76
(lp2427
S':'
asbag69
(g90
g71
NtRp2428
(dp2429
g74
(dp2430
sg83
g2415
sg76
(lp2431
g69
(g70
g71
NtRp2432
(dp2433
g74
(dp2434
g82
I5
ssg83
g2428
sg76
(lp2435
g69
(g78
g71
NtRp2436
(dp2437
g74
(dp2438
g82
I4
ssg83
Nsg76
(lp2439
g69
(g85
g71
NtRp2440
(dp2441
g74
(dp2442
sg83
g2436
sg76
(lp2443
g69
(g90
g71
NtRp2444
(dp2445
g74
(dp2446
g94
g95
ssg83
g2440
sg76
(lp2447
S'environ'
p2448
asbag69
(g90
g71
NtRp2449
(dp2450
g74
(dp2451
g101
g102
ssg83
g2440
sg76
(lp2452
S':'
asbag69
(g90
g71
NtRp2453
(dp2454
g74
(dp2455
sg83
g2440
sg76
(lp2456
g69
(g70
g71
NtRp2457
(dp2458
g74
(dp2459
g82
I4
ssg83
g2453
sg76
(lp2460
g69
(g78
g71
NtRp2461
(dp2462
g74
(dp2463
g82
I3
ssg83
Nsg76
(lp2464
g69
(g85
g71
NtRp2465
(dp2466
g74
(dp2467
sg83
g2461
sg76
(lp2468
g69
(g90
g71
NtRp2469
(dp2470
g74
(dp2471
g94
g95
ssg83
g2465
sg76
(lp2472
S'HTTP_ACCEPT'
p2473
asbag69
(g90
g71
NtRp2474
(dp2475
g74
(dp2476
g101
g102
ssg83
g2465
sg76
(lp2477
S':'
asbag69
(g90
g71
NtRp2478
(dp2479
g74
(dp2480
sg83
g2465
sg76
(lp2481
g69
(g70
g71
NtRp2482
(dp2483
g74
(dp2484
g82
I3
ssg83
g2478
sg76
(lp2485
g1015
asbasbasbag69
(g85
g71
NtRp2486
(dp2487
g74
(dp2488
sg83
g2461
sg76
(lp2489
g69
(g90
g71
NtRp2490
(dp2491
g74
(dp2492
g94
g95
ssg83
g2486
sg76
(lp2493
S'HTTP_ACCEPT_CHARSET'
p2494
asbag69
(g90
g71
NtRp2495
(dp2496
g74
(dp2497
g101
g102
ssg83
g2486
sg76
(lp2498
S':'
asbag69
(g90
g71
NtRp2499
(dp2500
g74
(dp2501
sg83
g2486
sg76
(lp2502
g69
(g70
g71
NtRp2503
(dp2504
g74
(dp2505
g82
I3
ssg83
g2499
sg76
(lp2506
g1037
asbasbasbag69
(g85
g71
NtRp2507
(dp2508
g74
(dp2509
sg83
g2461
sg76
(lp2510
g69
(g90
g71
NtRp2511
(dp2512
g74
(dp2513
g94
g95
ssg83
g2507
sg76
(lp2514
S'HTTP_ACCEPT_ENCODING'
p2515
asbag69
(g90
g71
NtRp2516
(dp2517
g74
(dp2518
g101
g102
ssg83
g2507
sg76
(lp2519
S':'
asbag69
(g90
g71
NtRp2520
(dp2521
g74
(dp2522
sg83
g2507
sg76
(lp2523
g69
(g70
g71
NtRp2524
(dp2525
g74
(dp2526
g82
I3
ssg83
g2520
sg76
(lp2527
g1059
asbasbasbag69
(g85
g71
NtRp2528
(dp2529
g74
(dp2530
sg83
g2461
sg76
(lp2531
g69
(g90
g71
NtRp2532
(dp2533
g74
(dp2534
g94
g95
ssg83
g2528
sg76
(lp2535
S'HTTP_ACCEPT_LANGUAGE'
p2536
asbag69
(g90
g71
NtRp2537
(dp2538
g74
(dp2539
g101
g102
ssg83
g2528
sg76
(lp2540
S':'
asbag69
(g90
g71
NtRp2541
(dp2542
g74
(dp2543
sg83
g2528
sg76
(lp2544
g69
(g70
g71
NtRp2545
(dp2546
g74
(dp2547
g82
I3
ssg83
g2541
sg76
(lp2548
g1081
asbasbasbag69
(g85
g71
NtRp2549
(dp2550
g74
(dp2551
sg83
g2461
sg76
(lp2552
g69
(g90
g71
NtRp2553
(dp2554
g74
(dp2555
g94
g95
ssg83
g2549
sg76
(lp2556
S'HTTP_CACHE_CONTROL'
p2557
asbag69
(g90
g71
NtRp2558
(dp2559
g74
(dp2560
g101
g102
ssg83
g2549
sg76
(lp2561
S':'
asbag69
(g90
g71
NtRp2562
(dp2563
g74
(dp2564
sg83
g2549
sg76
(lp2565
g69
(g70
g71
NtRp2566
(dp2567
g74
(dp2568
g82
I3
ssg83
g2562
sg76
(lp2569
g1103
asbasbasbag69
(g85
g71
NtRp2570
(dp2571
g74
(dp2572
sg83
g2461
sg76
(lp2573
g69
(g90
g71
NtRp2574
(dp2575
g74
(dp2576
g94
g95
ssg83
g2570
sg76
(lp2577
S'HTTP_CONNECTION'
p2578
asbag69
(g90
g71
NtRp2579
(dp2580
g74
(dp2581
g101
g102
ssg83
g2570
sg76
(lp2582
S':'
asbag69
(g90
g71
NtRp2583
(dp2584
g74
(dp2585
sg83
g2570
sg76
(lp2586
g69
(g70
g71
NtRp2587
(dp2588
g74
(dp2589
g82
I3
ssg83
g2583
sg76
(lp2590
g1125
asbasbasbag69
(g85
g71
NtRp2591
(dp2592
g74
(dp2593
sg83
g2461
sg76
(lp2594
g69
(g90
g71
NtRp2595
(dp2596
g74
(dp2597
g94
g95
ssg83
g2591
sg76
(lp2598
S'HTTP_COOKIE'
p2599
asbag69
(g90
g71
NtRp2600
(dp2601
g74
(dp2602
g101
g102
ssg83
g2591
sg76
(lp2603
S':'
asbag69
(g90
g71
NtRp2604
(dp2605
g74
(dp2606
sg83
g2591
sg76
(lp2607
g69
(g70
g71
NtRp2608
(dp2609
g74
(dp2610
g82
I3
ssg83
g2604
sg76
(lp2611
g1147
asbasbasbag69
(g85
g71
NtRp2612
(dp2613
g74
(dp2614
sg83
g2461
sg76
(lp2615
g69
(g90
g71
NtRp2616
(dp2617
g74
(dp2618
g94
g95
ssg83
g2612
sg76
(lp2619
S'HTTP_HOST'
p2620
asbag69
(g90
g71
NtRp2621
(dp2622
g74
(dp2623
g101
g102
ssg83
g2612
sg76
(lp2624
S':'
asbag69
(g90
g71
NtRp2625
(dp2626
g74
(dp2627
sg83
g2612
sg76
(lp2628
g69
(g70
g71
NtRp2629
(dp2630
g74
(dp2631
g82
I3
ssg83
g2625
sg76
(lp2632
g1169
asbasbasbag69
(g85
g71
NtRp2633
(dp2634
g74
(dp2635
sg83
g2461
sg76
(lp2636
g69
(g90
g71
NtRp2637
(dp2638
g74
(dp2639
g94
g95
ssg83
g2633
sg76
(lp2640
S'HTTP_REFERER'
p2641
asbag69
(g90
g71
NtRp2642
(dp2643
g74
(dp2644
g101
g102
ssg83
g2633
sg76
(lp2645
S':'
asbag69
(g90
g71
NtRp2646
(dp2647
g74
(dp2648
sg83
g2633
sg76
(lp2649
g69
(g70
g71
NtRp2650
(dp2651
g74
(dp2652
g82
I3
ssg83
g2646
sg76
(lp2653
g1191
asbasbasbag69
(g85
g71
NtRp2654
(dp2655
g74
(dp2656
sg83
g2461
sg76
(lp2657
g69
(g90
g71
NtRp2658
(dp2659
g74
(dp2660
g94
g95
ssg83
g2654
sg76
(lp2661
S'HTTP_USER_AGENT'
p2662
asbag69
(g90
g71
NtRp2663
(dp2664
g74
(dp2665
g101
g102
ssg83
g2654
sg76
(lp2666
S':'
asbag69
(g90
g71
NtRp2667
(dp2668
g74
(dp2669
sg83
g2654
sg76
(lp2670
g69
(g70
g71
NtRp2671
(dp2672
g74
(dp2673
g82
I3
ssg83
g2667
sg76
(lp2674
g1213
asbasbasbag69
(g85
g71
NtRp2675
(dp2676
g74
(dp2677
sg83
g2461
sg76
(lp2678
g69
(g90
g71
NtRp2679
(dp2680
g74
(dp2681
g94
g95
ssg83
g2675
sg76
(lp2682
S'PATH_INFO'
p2683
asbag69
(g90
g71
NtRp2684
(dp2685
g74
(dp2686
g101
g102
ssg83
g2675
sg76
(lp2687
S':'
asbag69
(g90
g71
NtRp2688
(dp2689
g74
(dp2690
sg83
g2675
sg76
(lp2691
g69
(g70
g71
NtRp2692
(dp2693
g74
(dp2694
g82
I3
ssg83
g2688
sg76
(lp2695
g1277
asbasbasbag69
(g85
g71
NtRp2696
(dp2697
g74
(dp2698
sg83
g2461
sg76
(lp2699
g69
(g90
g71
NtRp2700
(dp2701
g74
(dp2702
g94
g95
ssg83
g2696
sg76
(lp2703
S'QUERY_STRING'
p2704
asbag69
(g90
g71
NtRp2705
(dp2706
g74
(dp2707
g101
g102
ssg83
g2696
sg76
(lp2708
S':'
asbag69
(g90
g71
NtRp2709
(dp2710
g74
(dp2711
sg83
g2696
sg76
(lp2712
g69
(g70
g71
NtRp2713
(dp2714
g74
(dp2715
g82
I3
ssg83
g2709
sg76
(lp2716
S''
asbasbasbag69
(g85
g71
NtRp2717
(dp2718
g74
(dp2719
sg83
g2461
sg76
(lp2720
g69
(g90
g71
NtRp2721
(dp2722
g74
(dp2723
g94
g95
ssg83
g2717
sg76
(lp2724
S'REMOTE_ADDR'
p2725
asbag69
(g90
g71
NtRp2726
(dp2727
g74
(dp2728
g101
g102
ssg83
g2717
sg76
(lp2729
S':'
asbag69
(g90
g71
NtRp2730
(dp2731
g74
(dp2732
sg83
g2717
sg76
(lp2733
g69
(g70
g71
NtRp2734
(dp2735
g74
(dp2736
g82
I3
ssg83
g2730
sg76
(lp2737
g202
asbasbasbag69
(g85
g71
NtRp2738
(dp2739
g74
(dp2740
sg83
g2461
sg76
(lp2741
g69
(g90
g71
NtRp2742
(dp2743
g74
(dp2744
g94
g95
ssg83
g2738
sg76
(lp2745
S'REMOTE_PORT'
p2746
asbag69
(g90
g71
NtRp2747
(dp2748
g74
(dp2749
g101
g102
ssg83
g2738
sg76
(lp2750
S':'
asbag69
(g90
g71
NtRp2751
(dp2752
g74
(dp2753
sg83
g2738
sg76
(lp2754
g69
(g70
g71
NtRp2755
(dp2756
g74
(dp2757
g82
I3
ssg83
g2751
sg76
(lp2758
g1341
asbasbasbag69
(g85
g71
NtRp2759
(dp2760
g74
(dp2761
sg83
g2461
sg76
(lp2762
g69
(g90
g71
NtRp2763
(dp2764
g74
(dp2765
g94
g95
ssg83
g2759
sg76
(lp2766
S'REQUEST_METHOD'
p2767
asbag69
(g90
g71
NtRp2768
(dp2769
g74
(dp2770
g101
g102
ssg83
g2759
sg76
(lp2771
S':'
asbag69
(g90
g71
NtRp2772
(dp2773
g74
(dp2774
sg83
g2759
sg76
(lp2775
g69
(g70
g71
NtRp2776
(dp2777
g74
(dp2778
g82
I3
ssg83
g2772
sg76
(lp2779
g1363
asbasbasbag69
(g85
g71
NtRp2780
(dp2781
g74
(dp2782
sg83
g2461
sg76
(lp2783
g69
(g90
g71
NtRp2784
(dp2785
g74
(dp2786
g94
g95
ssg83
g2780
sg76
(lp2787
S'SCRIPT_NAME'
p2788
asbag69
(g90
g71
NtRp2789
(dp2790
g74
(dp2791
g101
g102
ssg83
g2780
sg76
(lp2792
S':'
asbag69
(g90
g71
NtRp2793
(dp2794
g74
(dp2795
sg83
g2780
sg76
(lp2796
g69
(g70
g71
NtRp2797
(dp2798
g74
(dp2799
g82
I3
ssg83
g2793
sg76
(lp2800
S''
asbasbasbag69
(g85
g71
NtRp2801
(dp2802
g74
(dp2803
sg83
g2461
sg76
(lp2804
g69
(g90
g71
NtRp2805
(dp2806
g74
(dp2807
g94
g95
ssg83
g2801
sg76
(lp2808
S'SERVER_NAME'
p2809
asbag69
(g90
g71
NtRp2810
(dp2811
g74
(dp2812
g101
g102
ssg83
g2801
sg76
(lp2813
S':'
asbag69
(g90
g71
NtRp2814
(dp2815
g74
(dp2816
sg83
g2801
sg76
(lp2817
g69
(g70
g71
NtRp2818
(dp2819
g74
(dp2820
g82
I3
ssg83
g2814
sg76
(lp2821
g1406
asbasbasbag69
(g85
g71
NtRp2822
(dp2823
g74
(dp2824
sg83
g2461
sg76
(lp2825
g69
(g90
g71
NtRp2826
(dp2827
g74
(dp2828
g94
g95
ssg83
g2822
sg76
(lp2829
S'SERVER_PORT'
p2830
asbag69
(g90
g71
NtRp2831
(dp2832
g74
(dp2833
g101
g102
ssg83
g2822
sg76
(lp2834
S':'
asbag69
(g90
g71
NtRp2835
(dp2836
g74
(dp2837
sg83
g2822
sg76
(lp2838
g69
(g70
g71
NtRp2839
(dp2840
g74
(dp2841
g82
I3
ssg83
g2835
sg76
(lp2842
g1428
asbasbasbag69
(g85
g71
NtRp2843
(dp2844
g74
(dp2845
sg83
g2461
sg76
(lp2846
g69
(g90
g71
NtRp2847
(dp2848
g74
(dp2849
g94
g95
ssg83
g2843
sg76
(lp2850
S'SERVER_PROTOCOL'
p2851
asbag69
(g90
g71
NtRp2852
(dp2853
g74
(dp2854
g101
g102
ssg83
g2843
sg76
(lp2855
S':'
asbag69
(g90
g71
NtRp2856
(dp2857
g74
(dp2858
sg83
g2843
sg76
(lp2859
g69
(g70
g71
NtRp2860
(dp2861
g74
(dp2862
g82
I3
ssg83
g2856
sg76
(lp2863
g1450
asbasbasbag69
(g85
g71
NtRp2864
(dp2865
g74
(dp2866
sg83
g2461
sg76
(lp2867
g69
(g90
g71
NtRp2868
(dp2869
g74
(dp2870
g94
g95
ssg83
g2864
sg76
(lp2871
S'SERVER_SOFTWARE'
p2872
asbag69
(g90
g71
NtRp2873
(dp2874
g74
(dp2875
g101
g102
ssg83
g2864
sg76
(lp2876
S':'
asbag69
(g90
g71
NtRp2877
(dp2878
g74
(dp2879
sg83
g2864
sg76
(lp2880
g69
(g70
g71
NtRp2881
(dp2882
g74
(dp2883
g82
I3
ssg83
g2877
sg76
(lp2884
g1472
asbasbasbag69
(g85
g71
NtRp2885
(dp2886
g74
(dp2887
sg83
g2461
sg76
(lp2888
g69
(g90
g71
NtRp2889
(dp2890
g74
(dp2891
g94
g95
ssg83
g2885
sg76
(lp2892
S'wsgi.errors'
p2893
asbag69
(g90
g71
NtRp2894
(dp2895
g74
(dp2896
g101
g102
ssg83
g2885
sg76
(lp2897
S':'
asbag69
(g90
g71
NtRp2898
(dp2899
g74
(dp2900
sg83
g2885
sg76
(lp2901
g69
(g70
g71
NtRp2902
(dp2903
g74
(dp2904
g82
I3
ssg83
g2898
sg76
(lp2905
S"<open file '<stderr>', mode 'w' at 0xb72ca0d0>"
p2906
asbasbasbag69
(g85
g71
NtRp2907
(dp2908
g74
(dp2909
sg83
g2461
sg76
(lp2910
g69
(g90
g71
NtRp2911
(dp2912
g74
(dp2913
g94
g95
ssg83
g2907
sg76
(lp2914
S'wsgi.file_wrapper'
p2915
asbag69
(g90
g71
NtRp2916
(dp2917
g74
(dp2918
g101
g102
ssg83
g2907
sg76
(lp2919
S':'
asbag69
(g90
g71
NtRp2920
(dp2921
g74
(dp2922
sg83
g2907
sg76
(lp2923
g69
(g70
g71
NtRp2924
(dp2925
g74
(dp2926
g82
I3
ssg83
g2920
sg76
(lp2927
S'<class wsgiref.util.FileWrapper at 0x8db505c>'
p2928
asbasbasbag69
(g85
g71
NtRp2929
(dp2930
g74
(dp2931
sg83
g2461
sg76
(lp2932
g69
(g90
g71
NtRp2933
(dp2934
g74
(dp2935
g94
g95
ssg83
g2929
sg76
(lp2936
S'wsgi.input'
p2937
asbag69
(g90
g71
NtRp2938
(dp2939
g74
(dp2940
g101
g102
ssg83
g2929
sg76
(lp2941
S':'
asbag69
(g90
g71
NtRp2942
(dp2943
g74
(dp2944
sg83
g2929
sg76
(lp2945
g69
(g70
g71
NtRp2946
(dp2947
g74
(dp2948
g82
I3
ssg83
g2942
sg76
(lp2949
S'<cStringIO.StringO object at 0xaae0c020>'
p2950
asbasbasbag69
(g85
g71
NtRp2951
(dp2952
g74
(dp2953
sg83
g2461
sg76
(lp2954
g69
(g90
g71
NtRp2955
(dp2956
g74
(dp2957
g94
g95
ssg83
g2951
sg76
(lp2958
S'wsgi.multiprocess'
p2959
asbag69
(g90
g71
NtRp2960
(dp2961
g74
(dp2962
g101
g102
ssg83
g2951
sg76
(lp2963
S':'
asbag69
(g90
g71
NtRp2964
(dp2965
g74
(dp2966
sg83
g2951
sg76
(lp2967
g69
(g70
g71
NtRp2968
(dp2969
g74
(dp2970
g82
I3
ssg83
g2964
sg76
(lp2971
g112
asbasbasbag69
(g85
g71
NtRp2972
(dp2973
g74
(dp2974
sg83
g2461
sg76
(lp2975
g69
(g90
g71
NtRp2976
(dp2977
g74
(dp2978
g94
g95
ssg83
g2972
sg76
(lp2979
S'wsgi.multithread'
p2980
asbag69
(g90
g71
NtRp2981
(dp2982
g74
(dp2983
g101
g102
ssg83
g2972
sg76
(lp2984
S':'
asbag69
(g90
g71
NtRp2985
(dp2986
g74
(dp2987
sg83
g2972
sg76
(lp2988
g69
(g70
g71
NtRp2989
(dp2990
g74
(dp2991
g82
I3
ssg83
g2985
sg76
(lp2992
g1712
asbasbasbag69
(g85
g71
NtRp2993
(dp2994
g74
(dp2995
sg83
g2461
sg76
(lp2996
g69
(g90
g71
NtRp2997
(dp2998
g74
(dp2999
g94
g95
ssg83
g2993
sg76
(lp3000
S'wsgi.run_once'
p3001
asbag69
(g90
g71
NtRp3002
(dp3003
g74
(dp3004
g101
g102
ssg83
g2993
sg76
(lp3005
S':'
asbag69
(g90
g71
NtRp3006
(dp3007
g74
(dp3008
sg83
g2993
sg76
(lp3009
g69
(g70
g71
NtRp3010
(dp3011
g74
(dp3012
g82
I3
ssg83
g3006
sg76
(lp3013
g112
asbasbasbag69
(g85
g71
NtRp3014
(dp3015
g74
(dp3016
sg83
g2461
sg76
(lp3017
g69
(g90
g71
NtRp3018
(dp3019
g74
(dp3020
g94
g95
ssg83
g3014
sg76
(lp3021
S'wsgi.url_scheme'
p3022
asbag69
(g90
g71
NtRp3023
(dp3024
g74
(dp3025
g101
g102
ssg83
g3014
sg76
(lp3026
S':'
asbag69
(g90
g71
NtRp3027
(dp3028
g74
(dp3029
sg83
g3014
sg76
(lp3030
g69
(g70
g71
NtRp3031
(dp3032
g74
(dp3033
g82
I3
ssg83
g3027
sg76
(lp3034
g1755
asbasbasbag69
(g85
g71
NtRp3035
(dp3036
g74
(dp3037
sg83
g2461
sg76
(lp3038
g69
(g90
g71
NtRp3039
(dp3040
g74
(dp3041
g94
g95
ssg83
g3035
sg76
(lp3042
S'wsgi.version'
p3043
asbag69
(g90
g71
NtRp3044
(dp3045
g74
(dp3046
g101
g102
ssg83
g3035
sg76
(lp3047
S':'
asbag69
(g90
g71
NtRp3048
(dp3049
g74
(dp3050
sg83
g3035
sg76
(lp3051
g69
(g70
g71
NtRp3052
(dp3053
g74
(dp3054
g82
I3
ssg83
g3048
sg76
(lp3055
S'1'
asbasbasbasbasbasbasbasbasbasbasbasbasbsS'frames'
p3056
(lp3057
(dp3058
S'file'
p3059
S'/usr/lib/pymodules/python2.7/gluon/restricted.py'
p3060
sS'dump'
p3061
(dp3062
S'environment'
p3063
S"{'A': <class 'gluon.html.A'>, 'B': <class 'gluon.html.B'>, 'BEAUTIFY': <class 'gluon.html.BEAUTIFY'>, 'BODY': <class 'gluon.html.BODY'>, 'BR': <class 'gluon.html.BR'>, 'BUTTON': <class 'gluon.html.BUTTON'>, 'CAT': <class 'gluon.html.CAT'>, 'CENTER': <class 'gluon.html.CENTER'>, 'CLEANUP': <class 'gluon.validators.CLEANUP'>, 'CODE': <class 'gluon.html.CODE'>, ...}"
p3064
sS'ccode'
p3065
S'<code object <module> at 0xaaf3b2f0, file "/home...pplications/kurssihallinta/models/db.py", line 3>'
p3066
ssS'lnum'
p3067
I204
sS'lines'
p3068
(dp3069
I199
S'    try:'
p3070
sI200
S'        if type(code) == types.CodeType:'
p3071
sI201
S'            ccode = code'
p3072
sI202
S'        else:'
p3073
sI203
S'            ccode = compile2(code,layer)'
p3074
sI204
S'        exec ccode in environment'
p3075
sI205
S'    except HTTP:'
p3076
sI206
S'        raise'
p3077
sI207
S'    except RestrictedError:'
p3078
sI208
S'        # do not encapsulate (obfuscate) the original RestrictedError'
p3079
ssS'call'
p3080
S'(code=\'# -*- coding: utf-8 -*-\\n\\ndb = DAL("sqlite://stor..._id.writable = db.post.image_id.readable = False\\n\', environment={\'A\': <class \'gluon.html.A\'>, \'B\': <class \'gluon.html.B\'>, \'BEAUTIFY\': <class \'gluon.html.BEAUTIFY\'>, \'BODY\': <class \'gluon.html.BODY\'>, \'BR\': <class \'gluon.html.BR\'>, \'BUTTON\': <class \'gluon.html.BUTTON\'>, \'CAT\': <class \'gluon.html.CAT\'>, \'CENTER\': <class \'gluon.html.CENTER\'>, \'CLEANUP\': <class \'gluon.validators.CLEANUP\'>, \'CODE\': <class \'gluon.html.CODE\'>, ...}, layer=\'/home/mka/web2py/applications/kurssihallinta/models/db.py\')'
p3081
sS'func'
p3082
S'restricted'
p3083
sa(dp3084
g3059
S'/home/mka/web2py/applications/kurssihallinta/models/db.py'
p3085
sg3061
(dp3086
S'builtinformat'
p3087
S'<built-in function format>'
p3088
ssg3067
I10
sg3068
(dp3089
I5
S"db.define_table('kurssityo',"
p3090
sI6
S"   Field('title', unique=True),"
p3091
sI7
S"   Field('palautettu', 'upload'),"
p3092
sI8
S"   Field('korjattu', 'upload'),"
p3093
sI9
S"   Field('arvosana','float'),"
p3094
sI10
S"   format = '%(title)s')"
p3095
sI11
S''
sI12
S"db.define_table('systeemi',"
p3096
sI13
S"   Field('kirjautunut'),"
p3097
sI14
S"   Field('viimeisin_bacup',date))"
p3098
ssg3080
S'()'
p3099
sg3082
S'<module>'
p3100
sa(dp3101
g3059
S'/usr/lib/pymodules/python2.7/gluon/dal.py'
p3102
sg3061
(dp3103
S'polymodel'
p3104
S'None'
p3105
ssg3067
I5097
sg3068
(dp3106
I5092
S"        if migrate or self._adapter.dbengine=='google:datastore':"
p3107
sI5093
S'            try:'
p3108
sI5094
S'                sql_locker.acquire()'
p3109
sI5095
S'                self._adapter.create_table(t,migrate=migrate,'
p3110
sI5096
S'                                           fake_migrate=fake_migrate,'
p3111
sI5097
S'                                           polymodel=polymodel)'
p3112
sI5098
S'            finally:'
p3113
sI5099
S'                sql_locker.release()'
p3114
sI5100
S'        else:'
p3115
sI5101
S'            t._dbt = None'
p3116
ssg3080
S"(self=<DAL {'_migrate_enabled': True, '_lastsql': '', ...'_uri_hash': 'c8b669d15150d7109e5f7ab36744a5b7'}>, tablename='kurssityo', *fields=(<gluon.dal.Field object>, <gluon.dal.Field object>, <gluon.dal.Field object>, <gluon.dal.Field object>), **args={'format': '%(title)s'})"
p3117
sg3082
S'define_table'
p3118
sa(dp3119
g3059
S'/usr/lib/pymodules/python2.7/gluon/dal.py'
p3120
sg3061
(dp3121
S'field.type'
p3122
S"'float'"
p3123
sS'field'
p3124
S'<gluon.dal.Field object>'
p3125
sS'field.name'
p3126
S"'arvosana'"
p3127
ssg3067
I624
sg3068
(dp3128
I619
S"                precision, scale = map(int,field.type[8:-1].split(','))"
p3129
sI620
S'                ftype = self.types[field.type[:7]] % \\'
p3130
sI621
S'                    dict(precision=precision,scale=scale)'
p3131
sI622
S'            elif not field.type in self.types:'
p3132
sI623
S"                raise SyntaxError, 'Field: unknown field type: %s for %s' % \\"
p3133
sI624
S'                    (field.type, field.name)'
p3134
sI625
S'            else:'
p3135
sI626
S'                ftype = self.types[field.type]\\'
p3136
sI627
S'                     % dict(length=field.length)'
p3137
sI628
S"            if not field.type.startswith('id') and not field.type.startswith('reference'):"
p3138
ssg3080
S"(self=<gluon.dal.SQLiteAdapter object>, table=<Table {'ALL': <gluon.dal.SQLALL object at 0xb22...>, 'id': <gluon.dal.Field object at 0xb22a552c>}>, migrate=True, fake_migrate=False, polymodel=None)"
p3139
sg3082
S'create_table'
p3140
sasS'pyver'
p3141
S'Python 2.7.3: /usr/bin/python'
p3142
sS'session'
p3143
g69
(g70
g71
NtRp3144
(dp3145
g74
(dp3146
sg76
(lp3147
g69
(g78
g71
NtRp3148
(dp3149
g74
(dp3150
g82
I5
ssg83
Nsg76
(lp3151
g69
(g85
g71
NtRp3152
(dp3153
g74
(dp3154
sg83
g3148
sg76
(lp3155
g69
(g90
g71
NtRp3156
(dp3157
g74
(dp3158
g94
g95
ssg83
g3152
sg76
(lp3159
S'flash'
p3160
asbag69
(g90
g71
NtRp3161
(dp3162
g74
(dp3163
g101
g102
ssg83
g3152
sg76
(lp3164
S':'
asbag69
(g90
g71
NtRp3165
(dp3166
g74
(dp3167
sg83
g3152
sg76
(lp3168
g69
(g70
g71
NtRp3169
(dp3170
g74
(dp3171
g82
I5
ssg83
g3165
sg76
(lp3172
S''
asbasbasbasbasbsS'etype'
p3173
S"<type 'exceptions.SyntaxError'>"
p3174
sS'date'
p3175
S'Sat May 24 10:35:56 2014'
p3176
sS'response'
p3177
g69
(g70
g71
NtRp3178
(dp3179
g74
(dp3180
sg76
(lp3181
g69
(g78
g71
NtRp3182
(dp3183
g74
(dp3184
g82
I5
ssg83
Nsg76
(lp3185
g69
(g85
g71
NtRp3186
(dp3187
g74
(dp3188
sg83
g3182
sg76
(lp3189
g69
(g90
g71
NtRp3190
(dp3191
g74
(dp3192
g94
g95
ssg83
g3186
sg76
(lp3193
g167
asbag69
(g90
g71
NtRp3194
(dp3195
g74
(dp3196
g101
g102
ssg83
g3186
sg76
(lp3197
S':'
asbag69
(g90
g71
NtRp3198
(dp3199
g74
(dp3200
sg83
g3186
sg76
(lp3201
g69
(g70
g71
NtRp3202
(dp3203
g74
(dp3204
g82
I5
ssg83
g3198
sg76
(lp3205
S'<cStringIO.StringO object at 0xb22a8280>'
p3206
asbasbasbag69
(g85
g71
NtRp3207
(dp3208
g74
(dp3209
sg83
g3182
sg76
(lp3210
g69
(g90
g71
NtRp3211
(dp3212
g74
(dp3213
g94
g95
ssg83
g3207
sg76
(lp3214
g233
asbag69
(g90
g71
NtRp3215
(dp3216
g74
(dp3217
g101
g102
ssg83
g3207
sg76
(lp3218
S':'
asbag69
(g90
g71
NtRp3219
(dp3220
g74
(dp3221
sg83
g3207
sg76
(lp3222
g69
(g70
g71
NtRp3223
(dp3224
g74
(dp3225
g82
I5
ssg83
g3219
sg76
(lp3226
g69
(g78
g71
NtRp3227
(dp3228
g74
(dp3229
g82
I4
ssg83
Nsg76
(lp3230
g69
(g85
g71
NtRp3231
(dp3232
g74
(dp3233
sg83
g3227
sg76
(lp3234
g69
(g90
g71
NtRp3235
(dp3236
g74
(dp3237
g94
g95
ssg83
g3231
sg76
(lp3238
S'session_id_kurssihallinta'
p3239
asbag69
(g90
g71
NtRp3240
(dp3241
g74
(dp3242
g101
g102
ssg83
g3231
sg76
(lp3243
S':'
asbag69
(g90
g71
NtRp3244
(dp3245
g74
(dp3246
sg83
g3231
sg76
(lp3247
g69
(g70
g71
NtRp3248
(dp3249
g74
(dp3250
g82
I4
ssg83
g3244
sg76
(lp3251
g69
(g78
g71
NtRp3252
(dp3253
g74
(dp3254
g82
I3
ssg83
Nsg76
(lp3255
g69
(g85
g71
NtRp3256
(dp3257
g74
(dp3258
sg83
g3252
sg76
(lp3259
g69
(g90
g71
NtRp3260
(dp3261
g74
(dp3262
g94
g95
ssg83
g3256
sg76
(lp3263
g283
asbag69
(g90
g71
NtRp3264
(dp3265
g74
(dp3266
g101
g102
ssg83
g3256
sg76
(lp3267
S':'
asbag69
(g90
g71
NtRp3268
(dp3269
g74
(dp3270
sg83
g3256
sg76
(lp3271
g69
(g70
g71
NtRp3272
(dp3273
g74
(dp3274
g82
I3
ssg83
g3268
sg76
(lp3275
S''
asbasbasbag69
(g85
g71
NtRp3276
(dp3277
g74
(dp3278
sg83
g3252
sg76
(lp3279
g69
(g90
g71
NtRp3280
(dp3281
g74
(dp3282
g94
g95
ssg83
g3276
sg76
(lp3283
g304
asbag69
(g90
g71
NtRp3284
(dp3285
g74
(dp3286
g101
g102
ssg83
g3276
sg76
(lp3287
S':'
asbag69
(g90
g71
NtRp3288
(dp3289
g74
(dp3290
sg83
g3276
sg76
(lp3291
g69
(g70
g71
NtRp3292
(dp3293
g74
(dp3294
g82
I3
ssg83
g3288
sg76
(lp3295
S''
asbasbasbag69
(g85
g71
NtRp3296
(dp3297
g74
(dp3298
sg83
g3252
sg76
(lp3299
g69
(g90
g71
NtRp3300
(dp3301
g74
(dp3302
g94
g95
ssg83
g3296
sg76
(lp3303
g325
asbag69
(g90
g71
NtRp3304
(dp3305
g74
(dp3306
g101
g102
ssg83
g3296
sg76
(lp3307
S':'
asbag69
(g90
g71
NtRp3308
(dp3309
g74
(dp3310
sg83
g3296
sg76
(lp3311
g69
(g70
g71
NtRp3312
(dp3313
g74
(dp3314
g82
I3
ssg83
g3308
sg76
(lp3315
S''
asbasbasbag69
(g85
g71
NtRp3316
(dp3317
g74
(dp3318
sg83
g3252
sg76
(lp3319
g69
(g90
g71
NtRp3320
(dp3321
g74
(dp3322
g94
g95
ssg83
g3316
sg76
(lp3323
g346
asbag69
(g90
g71
NtRp3324
(dp3325
g74
(dp3326
g101
g102
ssg83
g3316
sg76
(lp3327
S':'
asbag69
(g90
g71
NtRp3328
(dp3329
g74
(dp3330
sg83
g3316
sg76
(lp3331
g69
(g70
g71
NtRp3332
(dp3333
g74
(dp3334
g82
I3
ssg83
g3328
sg76
(lp3335
S''
asbasbasbag69
(g85
g71
NtRp3336
(dp3337
g74
(dp3338
sg83
g3252
sg76
(lp3339
g69
(g90
g71
NtRp3340
(dp3341
g74
(dp3342
g94
g95
ssg83
g3336
sg76
(lp3343
g367
asbag69
(g90
g71
NtRp3344
(dp3345
g74
(dp3346
g101
g102
ssg83
g3336
sg76
(lp3347
S':'
asbag69
(g90
g71
NtRp3348
(dp3349
g74
(dp3350
sg83
g3336
sg76
(lp3351
g69
(g70
g71
NtRp3352
(dp3353
g74
(dp3354
g82
I3
ssg83
g3348
sg76
(lp3355
S''
asbasbasbag69
(g85
g71
NtRp3356
(dp3357
g74
(dp3358
sg83
g3252
sg76
(lp3359
g69
(g90
g71
NtRp3360
(dp3361
g74
(dp3362
g94
g95
ssg83
g3356
sg76
(lp3363
g388
asbag69
(g90
g71
NtRp3364
(dp3365
g74
(dp3366
g101
g102
ssg83
g3356
sg76
(lp3367
S':'
asbag69
(g90
g71
NtRp3368
(dp3369
g74
(dp3370
sg83
g3356
sg76
(lp3371
g69
(g70
g71
NtRp3372
(dp3373
g74
(dp3374
g82
I3
ssg83
g3368
sg76
(lp3375
S'/'
asbasbasbag69
(g85
g71
NtRp3376
(dp3377
g74
(dp3378
sg83
g3252
sg76
(lp3379
g69
(g90
g71
NtRp3380
(dp3381
g74
(dp3382
g94
g95
ssg83
g3376
sg76
(lp3383
g409
asbag69
(g90
g71
NtRp3384
(dp3385
g74
(dp3386
g101
g102
ssg83
g3376
sg76
(lp3387
S':'
asbag69
(g90
g71
NtRp3388
(dp3389
g74
(dp3390
sg83
g3376
sg76
(lp3391
g69
(g70
g71
NtRp3392
(dp3393
g74
(dp3394
g82
I3
ssg83
g3388
sg76
(lp3395
S''
asbasbasbag69
(g85
g71
NtRp3396
(dp3397
g74
(dp3398
sg83
g3252
sg76
(lp3399
g69
(g90
g71
NtRp3400
(dp3401
g74
(dp3402
g94
g95
ssg83
g3396
sg76
(lp3403
g430
asbag69
(g90
g71
NtRp3404
(dp3405
g74
(dp3406
g101
g102
ssg83
g3396
sg76
(lp3407
S':'
asbag69
(g90
g71
NtRp3408
(dp3409
g74
(dp3410
sg83
g3396
sg76
(lp3411
g69
(g70
g71
NtRp3412
(dp3413
g74
(dp3414
g82
I3
ssg83
g3408
sg76
(lp3415
S''
asbasbasbasbasbasbasbasbasbasbasbag69
(g85
g71
NtRp3416
(dp3417
g74
(dp3418
sg83
g3182
sg76
(lp3419
g69
(g90
g71
NtRp3420
(dp3421
g74
(dp3422
g94
g95
ssg83
g3416
sg76
(lp3423
S'files'
p3424
asbag69
(g90
g71
NtRp3425
(dp3426
g74
(dp3427
g101
g102
ssg83
g3416
sg76
(lp3428
S':'
asbag69
(g90
g71
NtRp3429
(dp3430
g74
(dp3431
sg83
g3416
sg76
(lp3432
g69
(g70
g71
NtRp3433
(dp3434
g74
(dp3435
g82
I5
ssg83
g3429
sg76
(lp3436
g69
(g78
g71
NtRp3437
(dp3438
g74
(dp3439
g82
I4
ssg83
Nsg76
(lp3440
sbasbasbasbag69
(g85
g71
NtRp3441
(dp3442
g74
(dp3443
sg83
g3182
sg76
(lp3444
g69
(g90
g71
NtRp3445
(dp3446
g74
(dp3447
g94
g95
ssg83
g3441
sg76
(lp3448
S'flash'
p3449
asbag69
(g90
g71
NtRp3450
(dp3451
g74
(dp3452
g101
g102
ssg83
g3441
sg76
(lp3453
S':'
asbag69
(g90
g71
NtRp3454
(dp3455
g74
(dp3456
sg83
g3441
sg76
(lp3457
g69
(g70
g71
NtRp3458
(dp3459
g74
(dp3460
g82
I5
ssg83
g3454
sg76
(lp3461
S''
asbasbasbag69
(g85
g71
NtRp3462
(dp3463
g74
(dp3464
sg83
g3182
sg76
(lp3465
g69
(g90
g71
NtRp3466
(dp3467
g74
(dp3468
g94
g95
ssg83
g3462
sg76
(lp3469
S'generic_patterns'
p3470
asbag69
(g90
g71
NtRp3471
(dp3472
g74
(dp3473
g101
g102
ssg83
g3462
sg76
(lp3474
S':'
asbag69
(g90
g71
NtRp3475
(dp3476
g74
(dp3477
sg83
g3462
sg76
(lp3478
g69
(g70
g71
NtRp3479
(dp3480
g74
(dp3481
g82
I5
ssg83
g3475
sg76
(lp3482
g69
(g78
g71
NtRp3483
(dp3484
g74
(dp3485
g82
I4
ssg83
Nsg76
(lp3486
sbasbasbasbag69
(g85
g71
NtRp3487
(dp3488
g74
(dp3489
sg83
g3182
sg76
(lp3490
g69
(g90
g71
NtRp3491
(dp3492
g74
(dp3493
g94
g95
ssg83
g3487
sg76
(lp3494
S'headers'
p3495
asbag69
(g90
g71
NtRp3496
(dp3497
g74
(dp3498
g101
g102
ssg83
g3487
sg76
(lp3499
S':'
asbag69
(g90
g71
NtRp3500
(dp3501
g74
(dp3502
sg83
g3487
sg76
(lp3503
g69
(g70
g71
NtRp3504
(dp3505
g74
(dp3506
g82
I5
ssg83
g3500
sg76
(lp3507
g69
(g78
g71
NtRp3508
(dp3509
g74
(dp3510
g82
I4
ssg83
Nsg76
(lp3511
g69
(g85
g71
NtRp3512
(dp3513
g74
(dp3514
sg83
g3508
sg76
(lp3515
g69
(g90
g71
NtRp3516
(dp3517
g74
(dp3518
g94
g95
ssg83
g3512
sg76
(lp3519
S'Cache-Control'
p3520
asbag69
(g90
g71
NtRp3521
(dp3522
g74
(dp3523
g101
g102
ssg83
g3512
sg76
(lp3524
S':'
asbag69
(g90
g71
NtRp3525
(dp3526
g74
(dp3527
sg83
g3512
sg76
(lp3528
g69
(g70
g71
NtRp3529
(dp3530
g74
(dp3531
g82
I4
ssg83
g3525
sg76
(lp3532
S'no-store, no-cache, must-revalidate, post-check=0, pre-check=0'
p3533
asbasbasbag69
(g85
g71
NtRp3534
(dp3535
g74
(dp3536
sg83
g3508
sg76
(lp3537
g69
(g90
g71
NtRp3538
(dp3539
g74
(dp3540
g94
g95
ssg83
g3534
sg76
(lp3541
S'Content-Type'
p3542
asbag69
(g90
g71
NtRp3543
(dp3544
g74
(dp3545
g101
g102
ssg83
g3534
sg76
(lp3546
S':'
asbag69
(g90
g71
NtRp3547
(dp3548
g74
(dp3549
sg83
g3534
sg76
(lp3550
g69
(g70
g71
NtRp3551
(dp3552
g74
(dp3553
g82
I4
ssg83
g3547
sg76
(lp3554
S'text/html; charset=utf-8'
p3555
asbasbasbag69
(g85
g71
NtRp3556
(dp3557
g74
(dp3558
sg83
g3508
sg76
(lp3559
g69
(g90
g71
NtRp3560
(dp3561
g74
(dp3562
g94
g95
ssg83
g3556
sg76
(lp3563
S'Expires'
p3564
asbag69
(g90
g71
NtRp3565
(dp3566
g74
(dp3567
g101
g102
ssg83
g3556
sg76
(lp3568
S':'
asbag69
(g90
g71
NtRp3569
(dp3570
g74
(dp3571
sg83
g3556
sg76
(lp3572
g69
(g70
g71
NtRp3573
(dp3574
g74
(dp3575
g82
I4
ssg83
g3569
sg76
(lp3576
S'Sat, 24 May 2014 07:35:56 GMT'
p3577
asbasbasbag69
(g85
g71
NtRp3578
(dp3579
g74
(dp3580
sg83
g3508
sg76
(lp3581
g69
(g90
g71
NtRp3582
(dp3583
g74
(dp3584
g94
g95
ssg83
g3578
sg76
(lp3585
S'Pragma'
p3586
asbag69
(g90
g71
NtRp3587
(dp3588
g74
(dp3589
g101
g102
ssg83
g3578
sg76
(lp3590
S':'
asbag69
(g90
g71
NtRp3591
(dp3592
g74
(dp3593
sg83
g3578
sg76
(lp3594
g69
(g70
g71
NtRp3595
(dp3596
g74
(dp3597
g82
I4
ssg83
g3591
sg76
(lp3598
S'no-cache'
p3599
asbasbasbag69
(g85
g71
NtRp3600
(dp3601
g74
(dp3602
sg83
g3508
sg76
(lp3603
g69
(g90
g71
NtRp3604
(dp3605
g74
(dp3606
g94
g95
ssg83
g3600
sg76
(lp3607
S'X-Powered-By'
p3608
asbag69
(g90
g71
NtRp3609
(dp3610
g74
(dp3611
g101
g102
ssg83
g3600
sg76
(lp3612
S':'
asbag69
(g90
g71
NtRp3613
(dp3614
g74
(dp3615
sg83
g3600
sg76
(lp3616
g69
(g70
g71
NtRp3617
(dp3618
g74
(dp3619
g82
I4
ssg83
g3613
sg76
(lp3620
S'web2py'
p3621
asbasbasbasbasbasbasbag69
(g85
g71
NtRp3622
(dp3623
g74
(dp3624
sg83
g3182
sg76
(lp3625
g69
(g90
g71
NtRp3626
(dp3627
g74
(dp3628
g94
g95
ssg83
g3622
sg76
(lp3629
S'menu'
p3630
asbag69
(g90
g71
NtRp3631
(dp3632
g74
(dp3633
g101
g102
ssg83
g3622
sg76
(lp3634
S':'
asbag69
(g90
g71
NtRp3635
(dp3636
g74
(dp3637
sg83
g3622
sg76
(lp3638
g69
(g70
g71
NtRp3639
(dp3640
g74
(dp3641
g82
I5
ssg83
g3635
sg76
(lp3642
g69
(g78
g71
NtRp3643
(dp3644
g74
(dp3645
g82
I4
ssg83
Nsg76
(lp3646
sbasbasbasbag69
(g85
g71
NtRp3647
(dp3648
g74
(dp3649
sg83
g3182
sg76
(lp3650
g69
(g90
g71
NtRp3651
(dp3652
g74
(dp3653
g94
g95
ssg83
g3647
sg76
(lp3654
S'meta'
p3655
asbag69
(g90
g71
NtRp3656
(dp3657
g74
(dp3658
g101
g102
ssg83
g3647
sg76
(lp3659
S':'
asbag69
(g90
g71
NtRp3660
(dp3661
g74
(dp3662
sg83
g3647
sg76
(lp3663
g69
(g70
g71
NtRp3664
(dp3665
g74
(dp3666
g82
I5
ssg83
g3660
sg76
(lp3667
g69
(g78
g71
NtRp3668
(dp3669
g74
(dp3670
g82
I4
ssg83
Nsg76
(lp3671
sbasbasbasbag69
(g85
g71
NtRp3672
(dp3673
g74
(dp3674
sg83
g3182
sg76
(lp3675
g69
(g90
g71
NtRp3676
(dp3677
g74
(dp3678
g94
g95
ssg83
g3672
sg76
(lp3679
S'postprocessing'
p3680
asbag69
(g90
g71
NtRp3681
(dp3682
g74
(dp3683
g101
g102
ssg83
g3672
sg76
(lp3684
S':'
asbag69
(g90
g71
NtRp3685
(dp3686
g74
(dp3687
sg83
g3672
sg76
(lp3688
g69
(g70
g71
NtRp3689
(dp3690
g74
(dp3691
g82
I5
ssg83
g3685
sg76
(lp3692
g69
(g78
g71
NtRp3693
(dp3694
g74
(dp3695
g82
I4
ssg83
Nsg76
(lp3696
sbasbasbasbag69
(g85
g71
NtRp3697
(dp3698
g74
(dp3699
sg83
g3182
sg76
(lp3700
g69
(g90
g71
NtRp3701
(dp3702
g74
(dp3703
g94
g95
ssg83
g3697
sg76
(lp3704
S'session_file'
p3705
asbag69
(g90
g71
NtRp3706
(dp3707
g74
(dp3708
g101
g102
ssg83
g3697
sg76
(lp3709
S':'
asbag69
(g90
g71
NtRp3710
(dp3711
g74
(dp3712
sg83
g3697
sg76
(lp3713
g69
(g70
g71
NtRp3714
(dp3715
g74
(dp3716
g82
I5
ssg83
g3710
sg76
(lp3717
S"<open file '/home/mka/web2py/applications/kurssihallinta/sessions/127.0.0.1-04007b50-a50e-4f99-8adc-6e576aa93981', mode 'rb+' at 0xb1897808>"
p3718
asbasbasbag69
(g85
g71
NtRp3719
(dp3720
g74
(dp3721
sg83
g3182
sg76
(lp3722
g69
(g90
g71
NtRp3723
(dp3724
g74
(dp3725
g94
g95
ssg83
g3719
sg76
(lp3726
S'session_filename'
p3727
asbag69
(g90
g71
NtRp3728
(dp3729
g74
(dp3730
g101
g102
ssg83
g3719
sg76
(lp3731
S':'
asbag69
(g90
g71
NtRp3732
(dp3733
g74
(dp3734
sg83
g3719
sg76
(lp3735
g69
(g70
g71
NtRp3736
(dp3737
g74
(dp3738
g82
I5
ssg83
g3732
sg76
(lp3739
S'/home/mka/web2py/applications/kurssihallinta/sessions/127.0.0.1-04007b50-a50e-4f99-8adc-6e576aa93981'
p3740
asbasbasbag69
(g85
g71
NtRp3741
(dp3742
g74
(dp3743
sg83
g3182
sg76
(lp3744
g69
(g90
g71
NtRp3745
(dp3746
g74
(dp3747
g94
g95
ssg83
g3741
sg76
(lp3748
S'session_id'
p3749
asbag69
(g90
g71
NtRp3750
(dp3751
g74
(dp3752
g101
g102
ssg83
g3741
sg76
(lp3753
S':'
asbag69
(g90
g71
NtRp3754
(dp3755
g74
(dp3756
sg83
g3741
sg76
(lp3757
g69
(g70
g71
NtRp3758
(dp3759
g74
(dp3760
g82
I5
ssg83
g3754
sg76
(lp3761
S'127.0.0.1-04007b50-a50e-4f99-8adc-6e576aa93981'
p3762
asbasbasbag69
(g85
g71
NtRp3763
(dp3764
g74
(dp3765
sg83
g3182
sg76
(lp3766
g69
(g90
g71
NtRp3767
(dp3768
g74
(dp3769
g94
g95
ssg83
g3763
sg76
(lp3770
S'session_id_name'
p3771
asbag69
(g90
g71
NtRp3772
(dp3773
g74
(dp3774
g101
g102
ssg83
g3763
sg76
(lp3775
S':'
asbag69
(g90
g71
NtRp3776
(dp3777
g74
(dp3778
sg83
g3763
sg76
(lp3779
g69
(g70
g71
NtRp3780
(dp3781
g74
(dp3782
g82
I5
ssg83
g3776
sg76
(lp3783
g3239
asbasbasbag69
(g85
g71
NtRp3784
(dp3785
g74
(dp3786
sg83
g3182
sg76
(lp3787
g69
(g90
g71
NtRp3788
(dp3789
g74
(dp3790
g94
g95
ssg83
g3784
sg76
(lp3791
S'session_locked'
p3792
asbag69
(g90
g71
NtRp3793
(dp3794
g74
(dp3795
g101
g102
ssg83
g3784
sg76
(lp3796
S':'
asbag69
(g90
g71
NtRp3797
(dp3798
g74
(dp3799
sg83
g3784
sg76
(lp3800
g69
(g70
g71
NtRp3801
(dp3802
g74
(dp3803
g82
I5
ssg83
g3797
sg76
(lp3804
g1712
asbasbasbag69
(g85
g71
NtRp3805
(dp3806
g74
(dp3807
sg83
g3182
sg76
(lp3808
g69
(g90
g71
NtRp3809
(dp3810
g74
(dp3811
g94
g95
ssg83
g3805
sg76
(lp3812
S'session_new'
p3813
asbag69
(g90
g71
NtRp3814
(dp3815
g74
(dp3816
g101
g102
ssg83
g3805
sg76
(lp3817
S':'
asbag69
(g90
g71
NtRp3818
(dp3819
g74
(dp3820
sg83
g3805
sg76
(lp3821
g69
(g70
g71
NtRp3822
(dp3823
g74
(dp3824
g82
I5
ssg83
g3818
sg76
(lp3825
g112
asbasbasbag69
(g85
g71
NtRp3826
(dp3827
g74
(dp3828
sg83
g3182
sg76
(lp3829
g69
(g90
g71
NtRp3830
(dp3831
g74
(dp3832
g94
g95
ssg83
g3826
sg76
(lp3833
S'status'
p3834
asbag69
(g90
g71
NtRp3835
(dp3836
g74
(dp3837
g101
g102
ssg83
g3826
sg76
(lp3838
S':'
asbag69
(g90
g71
NtRp3839
(dp3840
g74
(dp3841
sg83
g3826
sg76
(lp3842
g69
(g70
g71
NtRp3843
(dp3844
g74
(dp3845
g82
I5
ssg83
g3839
sg76
(lp3846
S'200'
p3847
asbasbasbag69
(g85
g71
NtRp3848
(dp3849
g74
(dp3850
sg83
g3182
sg76
(lp3851
g69
(g90
g71
NtRp3852
(dp3853
g74
(dp3854
g94
g95
ssg83
g3848
sg76
(lp3855
g2376
asbag69
(g90
g71
NtRp3856
(dp3857
g74
(dp3858
g101
g102
ssg83
g3848
sg76
(lp3859
S':'
asbag69
(g90
g71
NtRp3860
(dp3861
g74
(dp3862
sg83
g3848
sg76
(lp3863
g69
(g70
g71
NtRp3864
(dp3865
g74
(dp3866
g82
I5
ssg83
g3860
sg76
(lp3867
g2389
asbasbasbag69
(g85
g71
NtRp3868
(dp3869
g74
(dp3870
sg83
g3182
sg76
(lp3871
g69
(g90
g71
NtRp3872
(dp3873
g74
(dp3874
g94
g95
ssg83
g3868
sg76
(lp3875
S'view'
p3876
asbag69
(g90
g71
NtRp3877
(dp3878
g74
(dp3879
g101
g102
ssg83
g3868
sg76
(lp3880
S':'
asbag69
(g90
g71
NtRp3881
(dp3882
g74
(dp3883
sg83
g3868
sg76
(lp3884
g69
(g70
g71
NtRp3885
(dp3886
g74
(dp3887
g82
I5
ssg83
g3881
sg76
(lp3888
S'default/index.html'
p3889
asbasbasbasbasbsS'locals'
p3890
(dp3891
S'polymodel'
p3892
S'None'
p3893
sS'sortable'
p3894
S'5'
sS'sql_fields_aux'
p3895
S"{'id': {'sql': 'INTEGER PRIMARY KEY AUTOINCREMENT'}, 'korjattu': {'sql': 'CHAR(512)'}, 'palautettu': {'sql': 'CHAR(512)'}, 'title': {'sql': 'CHAR(512) UNIQUE'}}"
p3896
sS'TFK'
p3897
g21
sS'migrate'
p3898
g1712
sS'fields'
p3899
S"['id INTEGER PRIMARY KEY AUTOINCREMENT', 'title CHAR(512) UNIQUE', 'palautettu CHAR(512)', 'korjattu CHAR(512)']"
p3900
sS'k'
S"'arvosana'"
p3901
sS'tablename'
p3902
S"'kurssityo'"
p3903
sS'fake_migrate'
p3904
g112
sS'field'
p3905
S'<gluon.dal.Field object>'
p3906
sS'ftype'
p3907
S"'CHAR(512)'"
p3908
sS'table'
p3909
S"<Table {'ALL': <gluon.dal.SQLALL object at 0xb22...>, 'id': <gluon.dal.Field object at 0xb22a552c>}>"
p3910
sS'sql_fields'
p3911
S"{'id': {'sortable': 1, 'sql': 'INTEGER PRIMARY KEY AUTOINCREMENT', 'type': 'id'}, 'korjattu': {'sortable': 4, 'sql': 'CHAR(512)', 'type': 'upload'}, 'palautettu': {'sortable': 3, 'sql': 'CHAR(512)', 'type': 'upload'}, 'title': {'sortable': 2, 'sql': 'CHAR(512) UNIQUE', 'type': 'string'}}"
p3912
sS'self'
p3913
S'<gluon.dal.SQLiteAdapter object>'
p3914
sssS'traceback'
p3915
S'Traceback (most recent call last):\n  File "/usr/lib/pymodules/python2.7/gluon/restricted.py", line 204, in restricted\n    exec ccode in environment\n  File "/home/mka/web2py/applications/kurssihallinta/models/db.py", line 10, in <module>\n    format = \'%(title)s\')\n  File "/usr/lib/pymodules/python2.7/gluon/dal.py", line 5097, in define_table\n    polymodel=polymodel)\n  File "/usr/lib/pymodules/python2.7/gluon/dal.py", line 624, in create_table\n    (field.type, field.name)\nSyntaxError: Field: unknown field type: float for arvosana\n'
p3916
s.