(dp1
S'kurssityo_id'
p2
(dp3
S'sortable'
p4
I3
sS'type'
p5
S'reference kurssityo'
p6
sS'sql'
p7
S'INTEGER REFERENCES kurssityo(id) ON DELETE CASCADE'
p8
ssS'id'
p9
(dp10
S'length'
p11
I512
sS'unique'
p12
I00
sS'sortable'
p13
I1
sS'sql'
p14
S'INTEGER PRIMARY KEY AUTOINCREMENT'
p15
sS'notnull'
p16
I00
sS'type'
p17
S'id'
p18
ssS'title'
p19
(dp20
g11
I512
sg12
I01
sg13
I2
sg14
S'CHAR(512) UNIQUE'
p21
sg16
I00
sg17
S'string'
p22
ss.